; dlltool -z target\i686-pc-windows-gnu\release\rdp.def --export-all-symbols target\i686-pc-windows-gnu\release\rdp.dll
EXPORTS
    AddVectoredExceptionHandler@8 @ 1 DATA
    CancelIo@4 @ 2 DATA
    CloseHandle@4 @ 3 DATA
    CommandLineToArgvW@8 @ 4 DATA
    CopyFileExW@24 @ 5 DATA
    CreateDirectoryW@8 @ 6 DATA
    CreateEventW@16 @ 7 DATA
    CreateFileW@28 @ 8 DATA
    CreateHardLinkW@12 @ 9 DATA
    CreateNamedPipeW@32 @ 10 DATA
    CreateProcessW@40 @ 11 DATA
    CreateThread@24 @ 12 DATA
    CryptAcquireContextA@20 @ 13 DATA
    CryptGenRandom@12 @ 14 DATA
    CryptReleaseContext@8 @ 15 DATA
    DeleteCriticalSection@4 @ 16 DATA
    DeleteFileW@4 @ 17 DATA
    DeviceIoControl@32 @ 18 DATA
    DllEntryPoint@12 @ 19
    DllMainCRTStartup@12 @ 20
    DuplicateHandle@28 @ 21 DATA
    EnterCriticalSection@4 @ 22 DATA
    ExitProcess@4 @ 23 DATA
    FindClose@4 @ 24 DATA
    FindFirstFileW@8 @ 25 DATA
    FindNextFileW@8 @ 26 DATA
    FlushFileBuffers@4 @ 27 DATA
    FormatMessageW@28 @ 28 DATA
    FreeEnvironmentStringsW@4 @ 29 DATA
    FreeLibrary@4 @ 30 DATA
    GetCommandLineW@0 @ 31 DATA
    GetConsoleMode@8 @ 32 DATA
    GetCurrentDirectoryW@8 @ 33 DATA
    GetCurrentProcess@0 @ 34 DATA
    GetCurrentProcessId@0 @ 35 DATA
    GetCurrentThread@0 @ 36 DATA
    GetEnvironmentStringsW@0 @ 37 DATA
    GetEnvironmentVariableW@12 @ 38 DATA
    GetExitCodeProcess@8 @ 39 DATA
    GetFileInformationByHandle@8 @ 40 DATA
    GetLastError@0 @ 41 DATA
    GetModuleFileNameW@12 @ 42 DATA
    GetModuleHandleW@4 @ 43 DATA
    GetOverlappedResult@16 @ 44 DATA
    GetProcAddress@8 @ 45 DATA
    GetProcessHeap@0 @ 46 DATA
    GetProcessId@4 @ 47 DATA
    GetStdHandle@4 @ 48 DATA
    GetSystemTimeAsFileTime@4 @ 49 DATA
    GetTempPathW@8 @ 50 DATA
    GetUserProfileDirectoryW@12 @ 51 DATA
    HeapAlloc@12 @ 52 DATA
    HeapFree@12 @ 53 DATA
    HeapReAlloc@16 @ 54 DATA
    InitializeCriticalSection@4 @ 55 DATA
    LeaveCriticalSection@4 @ 56 DATA
    LoadLibraryW@4 @ 57 DATA
    LocalFree@4 @ 58 DATA
    MoveFileExW@12 @ 59 DATA
    OpenProcess@12 @ 60 DATA
    OpenProcessToken@12 @ 61 DATA
    QueryPerformanceCounter@4 @ 62 DATA
    QueryPerformanceFrequency@4 @ 63 DATA
    ReadConsoleW@20 @ 64 DATA
    ReadFile@20 @ 65 DATA
    RemoveDirectoryW@4 @ 66 DATA
    RtlCaptureContext@4 @ 67 DATA
    SetCurrentDirectoryW@4 @ 68 DATA
    SetEnvironmentVariableW@8 @ 69 DATA
    SetFileAttributesW@8 @ 70 DATA
    SetFilePointerEx@20 @ 71 DATA
    SetHandleInformation@12 @ 72 DATA
    SetLastError@4 @ 73 DATA
    Sleep@4 @ 74 DATA
    SwitchToThread@0 @ 75 DATA
    TerminateProcess@8 @ 76 DATA
    TlsAlloc@0 @ 77 DATA
    TlsGetValue@4 @ 78 DATA
    TlsSetValue@8 @ 79 DATA
    TryEnterCriticalSection@4 @ 80 DATA
    WSACleanup@0 @ 81 DATA
    WSADuplicateSocketW@12 @ 82 DATA
    WSAGetLastError@0 @ 83 DATA
    WSASocketW@24 @ 84 DATA
    WSAStartup@8 @ 85 DATA
    WaitForMultipleObjects@16 @ 86 DATA
    WaitForSingleObject@8 @ 87 DATA
    WideCharToMultiByte@32 @ 88 DATA
    WriteConsoleW@20 @ 89 DATA
    WriteFile@20 @ 90 DATA
    _CRT_INIT@12 @ 91
    _CRT_MT @ 92 DATA
    _CTOR_LIST__ @ 93 DATA
    _DTOR_LIST__ @ 94 DATA
    _FindPESection @ 95
    _FindPESectionByName @ 96
    _FindPESectionExec @ 97
    _GetPEImageBase @ 98
    _IAT_end__ @ 99 DATA
    _IAT_start__ @ 100 DATA
    _IsNonwritableInCurrentImage @ 101
    _RUNTIME_PSEUDO_RELOC_LIST_END__ @ 102 DATA
    _RUNTIME_PSEUDO_RELOC_LIST__ @ 103 DATA
    _Unwind_Backtrace @ 104
    _Unwind_DeleteException @ 105
    _Unwind_FindEnclosingFunction @ 106
    _Unwind_Find_FDE @ 107
    _Unwind_ForcedUnwind @ 108
    _Unwind_GetCFA @ 109
    _Unwind_GetDataRelBase @ 110
    _Unwind_GetGR @ 111
    _Unwind_GetIP @ 112
    _Unwind_GetIPInfo @ 113
    _Unwind_GetLanguageSpecificData @ 114
    _Unwind_GetRegionStart @ 115
    _Unwind_GetTextRelBase @ 116
    _Unwind_RaiseException @ 117
    _Unwind_Resume @ 118
    _Unwind_Resume_or_Rethrow @ 119
    _Unwind_SetGR @ 120
    _Unwind_SetIP @ 121
    _ValidateImageBase @ 122
;   <std::net::ip::Ipv4Addr as std::sys_common::AsInner<std::sys::imp::c::in_addr>>::as_inner
    "_ZN100_$LT$std..net..ip..Ipv4Addr$u20$as$u20$std..sys_common..AsInner$LT$std..sys..imp..c..in_addr$GT$$GT$8as_inner17h4831543462b6a043E" @ 123
;   <std_unicode::u_str::SplitWhitespace<'a> as core::iter::iterator::Iterator>::next
    "_ZN100_$LT$std_unicode..u_str..SplitWhitespace$LT$$u27$a$GT$$u20$as$u20$core..iter..iterator..Iterator$GT$4next17hceaf4a46f6be0da3E" @ 124
;   <&'a [std::net::addr::SocketAddr] as std::net::addr::ToSocketAddrs>::to_socket_addrs
    "_ZN101_$LT$$RF$$u27$a$u20$$u5b$std..net..addr..SocketAddr$u5d$$u20$as$u20$std..net..addr..ToSocketAddrs$GT$15to_socket_addrs17he6aba1deffe84ad3E" @ 125
;   <core::ops::RangeInclusive<usize> as core::slice::SliceIndex<[T]>>::index::_MSG_FILE_LINE
    "_ZN101_$LT$core..ops..RangeInclusive$LT$usize$GT$$u20$as$u20$core..slice..SliceIndex$LT$$u5b$T$u5d$$GT$$GT$5index14_MSG_FILE_LINE17h5a2bd0465b31ed8fE" @ 126 DATA
;   <core::ops::RangeInclusive<usize> as core::slice::SliceIndex<[T]>>::index_mut::_MSG_FILE_LINE
    "_ZN101_$LT$core..ops..RangeInclusive$LT$usize$GT$$u20$as$u20$core..slice..SliceIndex$LT$$u5b$T$u5d$$GT$$GT$9index_mut14_MSG_FILE_LINE17h2e956a12be0c79ecE" @ 127 DATA
;   <std::ffi::os_str::OsString as core::convert::From<collections::string::String>>::from
    "_ZN101_$LT$std..ffi..os_str..OsString$u20$as$u20$core..convert..From$LT$collections..string..String$GT$$GT$4from17hcc585dc80f8f46bdE" @ 128
;   <std::io::cursor::Cursor<&'a mut [u8]> as std::io::Write>::flush
    "_ZN101_$LT$std..io..cursor..Cursor$LT$$RF$$u27$a$u20$mut$u20$$u5b$u8$u5d$$GT$$u20$as$u20$std..io..Write$GT$5flush17ha1474a44fd78392aE" @ 129
;   <std::net::ip::Ipv6Addr as std::sys_common::AsInner<std::sys::imp::c::in6_addr>>::as_inner
    "_ZN101_$LT$std..net..ip..Ipv6Addr$u20$as$u20$std..sys_common..AsInner$LT$std..sys..imp..c..in6_addr$GT$$GT$8as_inner17ha19ed954b7f6656bE" @ 130
;   <std::path::Iter<'a> as core::convert::AsRef<std::ffi::os_str::OsStr>>::as_ref
    "_ZN101_$LT$std..path..Iter$LT$$u27$a$GT$$u20$as$u20$core..convert..AsRef$LT$std..ffi..os_str..OsStr$GT$$GT$6as_ref17h183c15a982aeaa8dE" @ 131
;   <core::str::pattern::CharSliceSearcher<'a, 'b> as core::fmt::Debug>::fmt
    "_ZN102_$LT$core..str..pattern..CharSliceSearcher$LT$$u27$a$C$$u20$$u27$b$GT$$u20$as$u20$core..fmt..Debug$GT$3fmt17h96151ff7a9acda6dE" @ 132
;   <std::net::addr::SocketAddr as core::convert::From<std::net::addr::SocketAddrV4>>::from
    "_ZN102_$LT$std..net..addr..SocketAddr$u20$as$u20$core..convert..From$LT$std..net..addr..SocketAddrV4$GT$$GT$4from17h9c43be159932d316E" @ 133
;   <std::net::addr::SocketAddr as core::convert::From<std::net::addr::SocketAddrV6>>::from
    "_ZN102_$LT$std..net..addr..SocketAddr$u20$as$u20$core..convert..From$LT$std..net..addr..SocketAddrV6$GT$$GT$4from17h3e0bd0f88fc10358E" @ 134
;   <std::net::ip::Ipv4Addr as std::sys_common::FromInner<std::sys::imp::c::in_addr>>::from_inner
    "_ZN102_$LT$std..net..ip..Ipv4Addr$u20$as$u20$std..sys_common..FromInner$LT$std..sys..imp..c..in_addr$GT$$GT$10from_inner17hc05d937965035f8dE" @ 135
;   <std::sys::imp::fs::File as std::sys_common::FromInner<*mut libc::c_void>>::from_inner
    "_ZN102_$LT$std..sys..imp..fs..File$u20$as$u20$std..sys_common..FromInner$LT$$BP$mut$u20$libc..c_void$GT$$GT$10from_inner17h365ddf2efe22769aE" @ 136
;   <collections::string::String as core::convert::From<alloc::boxed::Box<str>>>::from
    "_ZN103_$LT$collections..string..String$u20$as$u20$core..convert..From$LT$alloc..boxed..Box$LT$str$GT$$GT$$GT$4from17h3fd0194a7c2ee772E" @ 137
;   <collections::string::String as core::convert::Into<alloc::boxed::Box<str>>>::into
    "_ZN103_$LT$collections..string..String$u20$as$u20$core..convert..Into$LT$alloc..boxed..Box$LT$str$GT$$GT$$GT$4into17hf6707e024d9705beE" @ 138
;   <std::io::cursor::Cursor<alloc::boxed::Box<[u8]>> as std::io::Write>::flush
    "_ZN103_$LT$std..io..cursor..Cursor$LT$alloc..boxed..Box$LT$$u5b$u8$u5d$$GT$$GT$$u20$as$u20$std..io..Write$GT$5flush17h84cfc03ccc4ac5c5E" @ 139
;   <std::net::ip::Ipv6Addr as std::sys_common::FromInner<std::sys::imp::c::in6_addr>>::from_inner
    "_ZN103_$LT$std..net..ip..Ipv6Addr$u20$as$u20$std..sys_common..FromInner$LT$std..sys..imp..c..in6_addr$GT$$GT$10from_inner17h31a367002c03e67cE" @ 140
;   <std::process::Child as std::sys_common::AsInner<std::sys::imp::process::Process>>::as_inner
    "_ZN103_$LT$std..process..Child$u20$as$u20$std..sys_common..AsInner$LT$std..sys..imp..process..Process$GT$$GT$8as_inner17h4efdd2c0599a1a37E" @ 141
;   <std::process::Stdio as std::sys_common::FromInner<std::sys::imp::process::Stdio>>::from_inner
    "_ZN103_$LT$std..process..Stdio$u20$as$u20$std..sys_common..FromInner$LT$std..sys..imp..process..Stdio$GT$$GT$10from_inner17h6158fc1a45f726bbE" @ 142
;   <&'b collections::string::String as core::str::pattern::Pattern<'a>>::into_searcher
    "_ZN104_$LT$$RF$$u27$b$u20$collections..string..String$u20$as$u20$core..str..pattern..Pattern$LT$$u27$a$GT$$GT$13into_searcher17h23e717f99631b612E" @ 143
;   <std::ffi::os_str::OsStr as std::sys_common::AsInner<std::sys::imp::os_str::Slice>>::as_inner
    "_ZN104_$LT$std..ffi..os_str..OsStr$u20$as$u20$std..sys_common..AsInner$LT$std..sys..imp..os_str..Slice$GT$$GT$8as_inner17h70ca8e907d0e6da7E" @ 144
;   <std::fs::DirBuilder as std::sys_common::AsInnerMut<std::sys::imp::fs::DirBuilder>>::as_inner_mut
    "_ZN104_$LT$std..fs..DirBuilder$u20$as$u20$std..sys_common..AsInnerMut$LT$std..sys..imp..fs..DirBuilder$GT$$GT$12as_inner_mut17h67194097bc2ecc04E" @ 145
;   <std::process::Child as std::sys_common::IntoInner<std::sys::imp::process::Process>>::into_inner
    "_ZN105_$LT$std..process..Child$u20$as$u20$std..sys_common..IntoInner$LT$std..sys..imp..process..Process$GT$$GT$10into_inner17hf120cc0ad4a835e2E" @ 146
;   <std::process::Command as std::sys_common::AsInner<std::sys::imp::process::Command>>::as_inner
    "_ZN105_$LT$std..process..Command$u20$as$u20$std..sys_common..AsInner$LT$std..sys..imp..process..Command$GT$$GT$8as_inner17h17b3e94a925f8450E" @ 147
;   <std::sys::imp::time::SystemTime as core::convert::From<std::sys::imp::c::FILETIME>>::from
    "_ZN105_$LT$std..sys..imp..time..SystemTime$u20$as$u20$core..convert..From$LT$std..sys..imp..c..FILETIME$GT$$GT$4from17hb5425afd88095d1cE" @ 148
;   <collections::string::Splice<'a, 'b> as core::iter::iterator::Iterator>::size_hint
    "_ZN106_$LT$collections..string..Splice$LT$$u27$a$C$$u20$$u27$b$GT$$u20$as$u20$core..iter..iterator..Iterator$GT$9size_hint17hdad763e135924dc4E" @ 149
;   <std::fs::OpenOptions as std::sys_common::AsInnerMut<std::sys::imp::fs::OpenOptions>>::as_inner_mut
    "_ZN106_$LT$std..fs..OpenOptions$u20$as$u20$std..sys_common..AsInnerMut$LT$std..sys..imp..fs..OpenOptions$GT$$GT$12as_inner_mut17h0cc6a4ef33be0a7bE" @ 150
;   <std::path::Component<'a> as core::convert::AsRef<std::ffi::os_str::OsStr>>::as_ref
    "_ZN106_$LT$std..path..Component$LT$$u27$a$GT$$u20$as$u20$core..convert..AsRef$LT$std..ffi..os_str..OsStr$GT$$GT$6as_ref17hf107923176f37fdaE" @ 151
;   <std::path::PathBuf as core::convert::From<alloc::boxed::Box<std::path::Path>>>::from
    "_ZN106_$LT$std..path..PathBuf$u20$as$u20$core..convert..From$LT$alloc..boxed..Box$LT$std..path..Path$GT$$GT$$GT$4from17h77b1ccbf3da0b984E" @ 152
;   <std::path::PathBuf as core::convert::Into<alloc::boxed::Box<std::path::Path>>>::into
    "_ZN106_$LT$std..path..PathBuf$u20$as$u20$core..convert..Into$LT$alloc..boxed..Box$LT$std..path..Path$GT$$GT$$GT$4into17hac6fb01f9720e943E" @ 153
;   <std::process::ChildStdin as std::sys_common::AsInner<std::sys::imp::pipe::AnonPipe>>::as_inner
    "_ZN106_$LT$std..process..ChildStdin$u20$as$u20$std..sys_common..AsInner$LT$std..sys..imp..pipe..AnonPipe$GT$$GT$8as_inner17h233fd45bbd0621ddE" @ 154
;   <std::sys::imp::os_str::Buf as std::sys_common::AsInner<std::sys_common::wtf8::Wtf8>>::as_inner
    "_ZN106_$LT$std..sys..imp..os_str..Buf$u20$as$u20$std..sys_common..AsInner$LT$std..sys_common..wtf8..Wtf8$GT$$GT$8as_inner17h9a53445090ea3fb0E" @ 155
;   <std::ffi::os_str::OsString as std::sys_common::FromInner<std::sys::imp::os_str::Buf>>::from_inner
    "_ZN107_$LT$std..ffi..os_str..OsString$u20$as$u20$std..sys_common..FromInner$LT$std..sys..imp..os_str..Buf$GT$$GT$10from_inner17hea1fba0b15c2e952E" @ 156
;   <std::ffi::os_str::OsString as std::sys_common::IntoInner<std::sys::imp::os_str::Buf>>::into_inner
    "_ZN107_$LT$std..ffi..os_str..OsString$u20$as$u20$std..sys_common..IntoInner$LT$std..sys..imp..os_str..Buf$GT$$GT$10into_inner17h15e516129e1eaa8dE" @ 157
;   <std::fs::Permissions as std::sys_common::AsInner<std::sys::imp::fs::FilePermissions>>::as_inner
    "_ZN107_$LT$std..fs..Permissions$u20$as$u20$std..sys_common..AsInner$LT$std..sys..imp..fs..FilePermissions$GT$$GT$8as_inner17h9071e66fcdac9ecaE" @ 158
;   <std::path::Components<'a> as core::convert::AsRef<std::ffi::os_str::OsStr>>::as_ref
    "_ZN107_$LT$std..path..Components$LT$$u27$a$GT$$u20$as$u20$core..convert..AsRef$LT$std..ffi..os_str..OsStr$GT$$GT$6as_ref17h113af5237d566181E" @ 159
;   <std::process::ChildStderr as std::sys_common::AsInner<std::sys::imp::pipe::AnonPipe>>::as_inner
    "_ZN107_$LT$std..process..ChildStderr$u20$as$u20$std..sys_common..AsInner$LT$std..sys..imp..pipe..AnonPipe$GT$$GT$8as_inner17h608b24649aeaef8bE" @ 160
;   <std::process::ChildStdout as std::sys_common::AsInner<std::sys::imp::pipe::AnonPipe>>::as_inner
    "_ZN107_$LT$std..process..ChildStdout$u20$as$u20$std..sys_common..AsInner$LT$std..sys..imp..pipe..AnonPipe$GT$$GT$8as_inner17hf6a3c6f6da529feeE" @ 161
;   <std::time::SystemTime as std::sys_common::FromInner<std::sys::imp::time::SystemTime>>::from_inner
    "_ZN107_$LT$std..time..SystemTime$u20$as$u20$std..sys_common..FromInner$LT$std..sys..imp..time..SystemTime$GT$$GT$10from_inner17haea195edc71f58a1E" @ 162
;   <std::ffi::c_str::CString as core::convert::From<&'a std::ffi::c_str::CStr>>::from
    "_ZN108_$LT$std..ffi..c_str..CString$u20$as$u20$core..convert..From$LT$$RF$$u27$a$u20$std..ffi..c_str..CStr$GT$$GT$4from17h0fd313427c12456fE" @ 163
;   <std::net::tcp::TcpStream as std::sys_common::AsInner<std::sys_common::net::TcpStream>>::as_inner
    "_ZN108_$LT$std..net..tcp..TcpStream$u20$as$u20$std..sys_common..AsInner$LT$std..sys_common..net..TcpStream$GT$$GT$8as_inner17hbd09bddbd2320ef8E" @ 164
;   <std::net::udp::UdpSocket as std::sys_common::AsInner<std::sys_common::net::UdpSocket>>::as_inner
    "_ZN108_$LT$std..net..udp..UdpSocket$u20$as$u20$std..sys_common..AsInner$LT$std..sys_common..net..UdpSocket$GT$$GT$8as_inner17h3e035d961b687838E" @ 165
;   <std::process::ChildStdin as std::sys_common::FromInner<std::sys::imp::pipe::AnonPipe>>::from_inner
    "_ZN108_$LT$std..process..ChildStdin$u20$as$u20$std..sys_common..FromInner$LT$std..sys..imp..pipe..AnonPipe$GT$$GT$10from_inner17h30c5fe455a2084c8E" @ 166
;   <std::process::ChildStdin as std::sys_common::IntoInner<std::sys::imp::pipe::AnonPipe>>::into_inner
    "_ZN108_$LT$std..process..ChildStdin$u20$as$u20$std..sys_common..IntoInner$LT$std..sys..imp..pipe..AnonPipe$GT$$GT$10into_inner17h0f98d363ff9047d0E" @ 167
;   <std::process::Command as std::sys_common::AsInnerMut<std::sys::imp::process::Command>>::as_inner_mut
    "_ZN108_$LT$std..process..Command$u20$as$u20$std..sys_common..AsInnerMut$LT$std..sys..imp..process..Command$GT$$GT$12as_inner_mut17hdbc92081339d4c00E" @ 168
;   <std::fs::Permissions as std::sys_common::FromInner<std::sys::imp::fs::FilePermissions>>::from_inner
    "_ZN109_$LT$std..fs..Permissions$u20$as$u20$std..sys_common..FromInner$LT$std..sys..imp..fs..FilePermissions$GT$$GT$10from_inner17hde51526bcd11f5b4E" @ 169
;   <std::process::ChildStderr as std::sys_common::FromInner<std::sys::imp::pipe::AnonPipe>>::from_inner
    "_ZN109_$LT$std..process..ChildStderr$u20$as$u20$std..sys_common..FromInner$LT$std..sys..imp..pipe..AnonPipe$GT$$GT$10from_inner17h9e9e86e067d3cf53E" @ 170
;   <std::process::ChildStderr as std::sys_common::IntoInner<std::sys::imp::pipe::AnonPipe>>::into_inner
    "_ZN109_$LT$std..process..ChildStderr$u20$as$u20$std..sys_common..IntoInner$LT$std..sys..imp..pipe..AnonPipe$GT$$GT$10into_inner17hb14016258d745d75E" @ 171
;   <std::process::ChildStdout as std::sys_common::FromInner<std::sys::imp::pipe::AnonPipe>>::from_inner
    "_ZN109_$LT$std..process..ChildStdout$u20$as$u20$std..sys_common..FromInner$LT$std..sys..imp..pipe..AnonPipe$GT$$GT$10from_inner17hecdbcc31229365f5E" @ 172
;   <std::process::ChildStdout as std::sys_common::IntoInner<std::sys::imp::pipe::AnonPipe>>::into_inner
    "_ZN109_$LT$std..process..ChildStdout$u20$as$u20$std..sys_common..IntoInner$LT$std..sys..imp..pipe..AnonPipe$GT$$GT$10into_inner17h6ddca742254dc1f4E" @ 173
;   <std_unicode::u_str::SplitWhitespace<'a> as core::iter::traits::DoubleEndedIterator>::next_back
    "_ZN109_$LT$std_unicode..u_str..SplitWhitespace$LT$$u27$a$GT$$u20$as$u20$core..iter..traits..DoubleEndedIterator$GT$9next_back17h9deb3ec7d15d6768E" @ 174
;   <core::any::Any + core::marker::Send + 'static as core::fmt::Debug>::fmt
    "_ZN110_$LT$core..any..Any$u20$$u2b$$u20$core..marker..Send$u20$$u2b$$u20$$u27$static$u20$as$u20$core..fmt..Debug$GT$3fmt17h7be059071dc6774bE" @ 175
;   <std::net::tcp::TcpStream as std::sys_common::FromInner<std::sys_common::net::TcpStream>>::from_inner
    "_ZN110_$LT$std..net..tcp..TcpStream$u20$as$u20$std..sys_common..FromInner$LT$std..sys_common..net..TcpStream$GT$$GT$10from_inner17h3d99c67672cfb301E" @ 176
;   <std::net::tcp::TcpStream as std::sys_common::IntoInner<std::sys_common::net::TcpStream>>::into_inner
    "_ZN110_$LT$std..net..tcp..TcpStream$u20$as$u20$std..sys_common..IntoInner$LT$std..sys_common..net..TcpStream$GT$$GT$10into_inner17h52399ccfbca801cbE" @ 177
;   <std::net::udp::UdpSocket as std::sys_common::FromInner<std::sys_common::net::UdpSocket>>::from_inner
    "_ZN110_$LT$std..net..udp..UdpSocket$u20$as$u20$std..sys_common..FromInner$LT$std..sys_common..net..UdpSocket$GT$$GT$10from_inner17h84a0ef60ffb1ce24E" @ 178
;   <std::net::udp::UdpSocket as std::sys_common::IntoInner<std::sys_common::net::UdpSocket>>::into_inner
    "_ZN110_$LT$std..net..udp..UdpSocket$u20$as$u20$std..sys_common..IntoInner$LT$std..sys_common..net..UdpSocket$GT$$GT$10into_inner17hcb187729e4ed2d5dE" @ 179
;   <std::process::ExitStatus as std::sys_common::AsInner<std::sys::imp::process::ExitStatus>>::as_inner
    "_ZN111_$LT$std..process..ExitStatus$u20$as$u20$std..sys_common..AsInner$LT$std..sys..imp..process..ExitStatus$GT$$GT$8as_inner17h6c0a9dd63f4a9331E" @ 180
;   <std::sys::imp::os_str::Buf as std::sys_common::IntoInner<std::sys_common::wtf8::Wtf8Buf>>::into_inner
    "_ZN111_$LT$std..sys..imp..os_str..Buf$u20$as$u20$std..sys_common..IntoInner$LT$std..sys_common..wtf8..Wtf8Buf$GT$$GT$10into_inner17h985d04517911e6b1E" @ 181
;   <std::net::addr::SocketAddrV4 as std::sys_common::FromInner<std::sys::imp::c::sockaddr_in>>::from_inner
    "_ZN112_$LT$std..net..addr..SocketAddrV4$u20$as$u20$std..sys_common..FromInner$LT$std..sys..imp..c..sockaddr_in$GT$$GT$10from_inner17hb7076a74c550eb88E" @ 182
;   <std::net::tcp::TcpListener as std::sys_common::AsInner<std::sys_common::net::TcpListener>>::as_inner
    "_ZN112_$LT$std..net..tcp..TcpListener$u20$as$u20$std..sys_common..AsInner$LT$std..sys_common..net..TcpListener$GT$$GT$8as_inner17h5e7f2a9a5676303dE" @ 183
;   <std::sys_common::net::TcpStream as std::sys_common::FromInner<std::sys::imp::net::Socket>>::from_inner
    "_ZN112_$LT$std..sys_common..net..TcpStream$u20$as$u20$std..sys_common..FromInner$LT$std..sys..imp..net..Socket$GT$$GT$10from_inner17h772baca27e6b4c99E" @ 184
;   <std::sys_common::net::UdpSocket as std::sys_common::FromInner<std::sys::imp::net::Socket>>::from_inner
    "_ZN112_$LT$std..sys_common..net..UdpSocket$u20$as$u20$std..sys_common..FromInner$LT$std..sys..imp..net..Socket$GT$$GT$10from_inner17hf3440ef28d993867E" @ 185
;   <alloc::boxed::Box<[u8]> as core::convert::From<alloc::boxed::Box<str>>>::from
    "_ZN113_$LT$alloc..boxed..Box$LT$$u5b$u8$u5d$$GT$$u20$as$u20$core..convert..From$LT$alloc..boxed..Box$LT$str$GT$$GT$$GT$4from17h49a47ebd244cb51fE" @ 186
;   <std::net::addr::SocketAddrV6 as std::sys_common::FromInner<std::sys::imp::c::sockaddr_in6>>::from_inner
    "_ZN113_$LT$std..net..addr..SocketAddrV6$u20$as$u20$std..sys_common..FromInner$LT$std..sys..imp..c..sockaddr_in6$GT$$GT$10from_inner17h9ff9a272ccfd9c31E" @ 187
;   <std::process::ExitStatus as std::sys_common::FromInner<std::sys::imp::process::ExitStatus>>::from_inner
    "_ZN113_$LT$std..process..ExitStatus$u20$as$u20$std..sys_common..FromInner$LT$std..sys..imp..process..ExitStatus$GT$$GT$10from_inner17h288301883c0f16f2E" @ 188
;   <std::net::tcp::TcpListener as std::sys_common::FromInner<std::sys_common::net::TcpListener>>::from_inner
    "_ZN114_$LT$std..net..tcp..TcpListener$u20$as$u20$std..sys_common..FromInner$LT$std..sys_common..net..TcpListener$GT$$GT$10from_inner17h8fee8138bf7a2f4eE" @ 189
;   <std::net::tcp::TcpListener as std::sys_common::IntoInner<std::sys_common::net::TcpListener>>::into_inner
    "_ZN114_$LT$std..net..tcp..TcpListener$u20$as$u20$std..sys_common..IntoInner$LT$std..sys_common..net..TcpListener$GT$$GT$10into_inner17hb9f402f224f1f3e0E" @ 190
;   <std::sys_common::net::TcpListener as std::sys_common::FromInner<std::sys::imp::net::Socket>>::from_inner
    "_ZN114_$LT$std..sys_common..net..TcpListener$u20$as$u20$std..sys_common..FromInner$LT$std..sys..imp..net..Socket$GT$$GT$10from_inner17h9a66023e7da8bfe1E" @ 191
;   <collections::borrow::Cow<'a, str> as core::ops::AddAssign<&'a str>>::add_assign
    "_ZN116_$LT$collections..borrow..Cow$LT$$u27$a$C$$u20$str$GT$$u20$as$u20$core..ops..AddAssign$LT$$RF$$u27$a$u20$str$GT$$GT$10add_assign17hb41a55e496f05a05E" @ 192
;   <std::ffi::c_str::CString as core::convert::From<alloc::boxed::Box<std::ffi::c_str::CStr>>>::from
    "_ZN118_$LT$std..ffi..c_str..CString$u20$as$u20$core..convert..From$LT$alloc..boxed..Box$LT$std..ffi..c_str..CStr$GT$$GT$$GT$4from17h00a257754d5e2bfdE" @ 193
;   <std::ffi::c_str::CString as core::convert::Into<alloc::boxed::Box<std::ffi::c_str::CStr>>>::into
    "_ZN118_$LT$std..ffi..c_str..CString$u20$as$u20$core..convert..Into$LT$alloc..boxed..Box$LT$std..ffi..c_str..CStr$GT$$GT$$GT$4into17hb701e410036b5618E" @ 194
;   collections::fmt::format
    _ZN11collections3fmt6format17hb2903dcb0ea6c1b0E @ 195
;   collections::str::<impl str>::trim_right
    _ZN11collections3str21_$LT$impl$u20$str$GT$10trim_right17h4fe83488325590e3E @ 196
;   collections::str::<impl str>::into_string
    _ZN11collections3str21_$LT$impl$u20$str$GT$11into_string17hac893ab7b9f212b7E @ 197
;   collections::str::<impl str>::encode_utf16
    _ZN11collections3str21_$LT$impl$u20$str$GT$12encode_utf1617haeb695f47762b488E @ 198
;   collections::str::<impl str>::escape_debug
    _ZN11collections3str21_$LT$impl$u20$str$GT$12escape_debug17h9701b8948cfbcbfaE @ 199
;   collections::str::<impl str>::to_lowercase
    _ZN11collections3str21_$LT$impl$u20$str$GT$12to_lowercase17h3b9c01f32dce1f33E @ 200
;   collections::str::<impl str>::to_uppercase
    _ZN11collections3str21_$LT$impl$u20$str$GT$12to_uppercase17hf95dee13b9a8f726E @ 201
;   collections::str::<impl str>::escape_default
    _ZN11collections3str21_$LT$impl$u20$str$GT$14escape_default17hf1c81a6ff90e0762E @ 202
;   collections::str::<impl str>::escape_unicode
    _ZN11collections3str21_$LT$impl$u20$str$GT$14escape_unicode17h52528228227d0fb1E @ 203
;   collections::str::<impl str>::into_boxed_bytes
    _ZN11collections3str21_$LT$impl$u20$str$GT$16into_boxed_bytes17h46ac9cc39699b022E @ 204
;   collections::str::<impl str>::trim
    _ZN11collections3str21_$LT$impl$u20$str$GT$4trim17hc01e949e12bc446cE @ 205
;   collections::str::<impl str>::repeat
    _ZN11collections3str21_$LT$impl$u20$str$GT$6repeat17h040c1712f02961d1E @ 206
;   collections::str::<impl str>::trim_left
    _ZN11collections3str21_$LT$impl$u20$str$GT$9trim_left17h372f6c1809be9064E @ 207
;   collections::str::<impl collections::borrow::ToOwned for str>::clone_into
    "_ZN11collections3str62_$LT$impl$u20$collections..borrow..ToOwned$u20$for$u20$str$GT$10clone_into17ha22ae0b722bc5b56E" @ 208
;   collections::str::<impl collections::borrow::ToOwned for str>::to_owned
    "_ZN11collections3str62_$LT$impl$u20$collections..borrow..ToOwned$u20$for$u20$str$GT$8to_owned17h7636fc7d16c6594aE" @ 209
;   collections::btree::map::range_search::_FILE_LINE
    _ZN11collections5btree3map12range_search10_FILE_LINE17h13c709df3cd746feE @ 210 DATA
;   collections::btree::map::range_search::_MSG_FILE_LINE
    _ZN11collections5btree3map12range_search14_MSG_FILE_LINE17h66228f0bff3b05e4E @ 211 DATA
;   collections::btree::map::range_search::_MSG_FILE_LINE
    _ZN11collections5btree3map12range_search14_MSG_FILE_LINE17h6f85df33369142d0E @ 212 DATA
;   collections::btree::map::range_search::_MSG_FILE_LINE
    _ZN11collections5btree3map12range_search14_MSG_FILE_LINE17ha63f6b9c736f139bE @ 213 DATA
;   collections::btree::map::range_search::__STATIC_FMTSTR
    _ZN11collections5btree3map12range_search15__STATIC_FMTSTR17h576bf69918eaee09E @ 214 DATA
;   collections::btree::map::unwrap_unchecked::{{closure}}::_MSG_FILE_LINE
    _ZN11collections5btree3map16unwrap_unchecked28_$u7b$$u7b$closure$u7d$$u7d$14_MSG_FILE_LINE17h4ca5289a3dff286bE @ 215 DATA
;   collections::slice::merge_sort::_MSG_FILE_LINE
    _ZN11collections5slice10merge_sort14_MSG_FILE_LINE17ha3bb5dd942211b13E @ 216 DATA
;   collections::string::<impl core::convert::From<collections::string::String> for collections::vec::Vec<u8>>::from
    "_ZN11collections6string116_$LT$impl$u20$core..convert..From$LT$collections..string..String$GT$$u20$for$u20$collections..vec..Vec$LT$u8$GT$$GT$4from17h57dd499f7d2fabb5E" @ 217
;   collections::string::FromUtf8Error::into_bytes
    _ZN11collections6string13FromUtf8Error10into_bytes17h2ff6a05f6e204ae5E @ 218
;   collections::string::FromUtf8Error::utf8_error
    _ZN11collections6string13FromUtf8Error10utf8_error17h8f3ed45c9cb29ae2E @ 219
;   collections::string::FromUtf8Error::as_bytes
    _ZN11collections6string13FromUtf8Error8as_bytes17h5305873dc490a6f5E @ 220
;   collections::string::String::from_utf16
    _ZN11collections6string6String10from_utf1617ha9280b5f8bf95689E @ 221
;   collections::string::String::insert_str::_MSG_FILE_LINE
    _ZN11collections6string6String10insert_str14_MSG_FILE_LINE17h61e41daf9f650e41E @ 222 DATA
;   collections::string::String::insert_bytes
    _ZN11collections6string6String12insert_bytes17hc5ceb1885b026aadE @ 223
;   collections::string::String::into_boxed_str
    _ZN11collections6string6String14into_boxed_str17ha233005011d41853E @ 224
;   collections::string::String::from_utf8_lossy
    _ZN11collections6string6String15from_utf8_lossy17habb7feeeb453a254E @ 225
;   collections::string::String::insert::_MSG_FILE_LINE
    _ZN11collections6string6String6insert14_MSG_FILE_LINE17hed59307d80cc5cfcE @ 226 DATA
;   collections::string::String::remove::_MSG_FILE_LINE
    _ZN11collections6string6String6remove14_MSG_FILE_LINE17hd7b1381560cf689aE @ 227 DATA
;   collections::string::String::truncate::_MSG_FILE_LINE
    _ZN11collections6string6String8truncate14_MSG_FILE_LINE17h088f6c5241fb159fE @ 228 DATA
;   collections::string::String::split_off::_MSG_FILE_LINE
    _ZN11collections6string6String9split_off14_MSG_FILE_LINE17hce439633895780fbE @ 229 DATA
;   collections::vec_deque::wrap_index::_MSG_FILE_LINE
    _ZN11collections9vec_deque10wrap_index14_MSG_FILE_LINE17h1b683fb2f8fe2836E @ 230 DATA
;   std_unicode::char::CaseMappingIter::new
    _ZN11std_unicode4char15CaseMappingIter3new17h7ca64efc9e9d9a07E @ 231
;   std_unicode::char::DecodeUtf16Error::unpaired_surrogate
    _ZN11std_unicode4char16DecodeUtf16Error18unpaired_surrogate17h4e1e4436bdce4873E @ 232
;   std_unicode::tables::conversions::to_lower
    _ZN11std_unicode6tables11conversions8to_lower17h239cd13c30dcf33eE @ 233
;   std_unicode::tables::conversions::to_upper
    _ZN11std_unicode6tables11conversions8to_upper17h1230080d1fcc3c53E @ 234
;   std_unicode::tables::derived_property::Alphabetic
    _ZN11std_unicode6tables16derived_property10Alphabetic17h0596dc54aef3b9f1E @ 235
;   std_unicode::tables::derived_property::XID_Continue
    _ZN11std_unicode6tables16derived_property12XID_Continue17h061b5f99b1748245E @ 236
;   std_unicode::tables::derived_property::Case_Ignorable
    _ZN11std_unicode6tables16derived_property14Case_Ignorable17ha247ee7da42f810cE @ 237
;   std_unicode::tables::derived_property::Cased
    _ZN11std_unicode6tables16derived_property5Cased17h7279c1a4f4e416a1E @ 238
;   std_unicode::tables::derived_property::Lowercase
    _ZN11std_unicode6tables16derived_property9Lowercase17h5698901702b82bf0E @ 239
;   std_unicode::tables::derived_property::Uppercase
    _ZN11std_unicode6tables16derived_property9Uppercase17hb489827dfba05ba4E @ 240
;   std_unicode::tables::derived_property::XID_Start
    _ZN11std_unicode6tables16derived_property9XID_Start17hc949bf6b630f1651E @ 241
;   std_unicode::tables::general_category::N
    _ZN11std_unicode6tables16general_category1N17h096334c321b20d10E @ 242
;   std_unicode::tables::general_category::Cc
    _ZN11std_unicode6tables16general_category2Cc17hf6ca2099641562a8E @ 243
;   std_unicode::tables::property::White_Space
    _ZN11std_unicode6tables8property11White_Space17hd4901ad8c4c5e085E @ 244
;   std_unicode::tables::property::Pattern_White_Space
    _ZN11std_unicode6tables8property19Pattern_White_Space17h70af37ca75774101E @ 245
;   <core::str::pattern::StrSearcher<'a, 'b> as core::str::pattern::Searcher<'a>>::haystack
    "_ZN122_$LT$core..str..pattern..StrSearcher$LT$$u27$a$C$$u20$$u27$b$GT$$u20$as$u20$core..str..pattern..Searcher$LT$$u27$a$GT$$GT$8haystack17h8123f9d04ea45d34E" @ 246
;   <std::ffi::os_str::OsString as core::convert::From<alloc::boxed::Box<std::ffi::os_str::OsStr>>>::from
    "_ZN122_$LT$std..ffi..os_str..OsString$u20$as$u20$core..convert..From$LT$alloc..boxed..Box$LT$std..ffi..os_str..OsStr$GT$$GT$$GT$4from17h5bacfaaf71fe5985E" @ 247
;   <std::ffi::os_str::OsString as core::convert::Into<alloc::boxed::Box<std::ffi::os_str::OsStr>>>::into
    "_ZN122_$LT$std..ffi..os_str..OsString$u20$as$u20$core..convert..Into$LT$alloc..boxed..Box$LT$std..ffi..os_str..OsStr$GT$$GT$$GT$4into17hd0a70570fa9f29b6E" @ 248
;   <collections::string::String as core::convert::From<collections::borrow::Cow<'a, str>>>::from
    "_ZN124_$LT$collections..string..String$u20$as$u20$core..convert..From$LT$collections..borrow..Cow$LT$$u27$a$C$$u20$str$GT$$GT$$GT$4from17h288d99ead01cbf66E" @ 249
;   <<std::path::Iter<'a> as core::fmt::Debug>::fmt::DebugHelper<'a> as core::fmt::Debug>::fmt
    "_ZN134_$LT$$LT$std..path..Iter$LT$$u27$a$GT$$u20$as$u20$core..fmt..Debug$GT$..fmt..DebugHelper$LT$$u27$a$GT$$u20$as$u20$core..fmt..Debug$GT$3fmt17h0fe846b9b82c62dbE" @ 250
;   <<std::path::Components<'a> as core::fmt::Debug>::fmt::DebugHelper<'a> as core::fmt::Debug>::fmt
    "_ZN140_$LT$$LT$std..path..Components$LT$$u27$a$GT$$u20$as$u20$core..fmt..Debug$GT$..fmt..DebugHelper$LT$$u27$a$GT$$u20$as$u20$core..fmt..Debug$GT$3fmt17h1b77b09aa94b03e4E" @ 251
;   <&'a std::net::addr::SocketAddr as std::sys_common::IntoInner<(*const std::sys::imp::c::SOCKADDR, i32)>>::into_inner
    "_ZN155_$LT$$RF$$u27$a$u20$std..net..addr..SocketAddr$u20$as$u20$std..sys_common..IntoInner$LT$$LP$$BP$const$u20$std..sys..imp..c..SOCKADDR$C$$u20$i32$RP$$GT$$GT$10into_inner17h2e379bc5b57b5383E" @ 252
;   <std::process::Child as std::sys_common::FromInner<(std::sys::imp::process::Process, std::sys::imp::process::StdioPipes)>>::from_inner
    "_ZN155_$LT$std..process..Child$u20$as$u20$std..sys_common..FromInner$LT$$LP$std..sys..imp..process..Process$C$$u20$std..sys..imp..process..StdioPipes$RP$$GT$$GT$10from_inner17h066667dbc09f3735E" @ 253
;   <collections::btree::node::NodeRef<collections::btree::node::marker::Mut<'a>, K, V, collections::btree::node::marker::Leaf>>::push_front::_MSG_FILE_LINE
    "_ZN165_$LT$collections..btree..node..NodeRef$LT$collections..btree..node..marker..Mut$LT$$u27$a$GT$$C$$u20$K$C$$u20$V$C$$u20$collections..btree..node..marker..Leaf$GT$$GT$10push_front14_MSG_FILE_LINE17h54e6e4627b13de27E" @ 254 DATA
;   <collections::btree::node::NodeRef<collections::btree::node::marker::Mut<'a>, K, V, collections::btree::node::marker::Leaf>>::push::_MSG_FILE_LINE
    "_ZN165_$LT$collections..btree..node..NodeRef$LT$collections..btree..node..marker..Mut$LT$$u27$a$GT$$C$$u20$K$C$$u20$V$C$$u20$collections..btree..node..marker..Leaf$GT$$GT$4push14_MSG_FILE_LINE17h5ca8bada108704edE" @ 255 DATA
;   <collections::btree::node::NodeRef<collections::btree::node::marker::Mut<'a>, K, V, collections::btree::node::marker::Internal>>::push_front::_MSG_FILE_LINE
    "_ZN169_$LT$collections..btree..node..NodeRef$LT$collections..btree..node..marker..Mut$LT$$u27$a$GT$$C$$u20$K$C$$u20$V$C$$u20$collections..btree..node..marker..Internal$GT$$GT$10push_front14_MSG_FILE_LINE17h3e1d0aea672c68acE" @ 256 DATA
;   <collections::btree::node::NodeRef<collections::btree::node::marker::Mut<'a>, K, V, collections::btree::node::marker::Internal>>::push_front::_MSG_FILE_LINE
    "_ZN169_$LT$collections..btree..node..NodeRef$LT$collections..btree..node..marker..Mut$LT$$u27$a$GT$$C$$u20$K$C$$u20$V$C$$u20$collections..btree..node..marker..Internal$GT$$GT$10push_front14_MSG_FILE_LINE17he0ef7881a6504d51E" @ 257 DATA
;   <collections::btree::node::NodeRef<collections::btree::node::marker::Mut<'a>, K, V, collections::btree::node::marker::Internal>>::push::_MSG_FILE_LINE
    "_ZN169_$LT$collections..btree..node..NodeRef$LT$collections..btree..node..marker..Mut$LT$$u27$a$GT$$C$$u20$K$C$$u20$V$C$$u20$collections..btree..node..marker..Internal$GT$$GT$4push14_MSG_FILE_LINE17h1621568b9b4c4513E" @ 258 DATA
;   <collections::btree::node::NodeRef<collections::btree::node::marker::Mut<'a>, K, V, collections::btree::node::marker::Internal>>::push::_MSG_FILE_LINE
    "_ZN169_$LT$collections..btree..node..NodeRef$LT$collections..btree..node..marker..Mut$LT$$u27$a$GT$$C$$u20$K$C$$u20$V$C$$u20$collections..btree..node..marker..Internal$GT$$GT$4push14_MSG_FILE_LINE17hd91392d1eefb8f2dE" @ 259 DATA
;   <collections::btree::node::NodeRef<collections::btree::node::marker::Mut<'a>, K, V, collections::btree::node::marker::LeafOrInternal>>::pop::_MSG_FILE_LINE
    "_ZN175_$LT$collections..btree..node..NodeRef$LT$collections..btree..node..marker..Mut$LT$$u27$a$GT$$C$$u20$K$C$$u20$V$C$$u20$collections..btree..node..marker..LeafOrInternal$GT$$GT$3pop14_MSG_FILE_LINE17hf7b9c8e69fbaaf03E" @ 260 DATA
;   <collections::btree::node::NodeRef<collections::btree::node::marker::Mut<'a>, K, V, collections::btree::node::marker::LeafOrInternal>>::pop_front::_MSG_FILE_LINE
    "_ZN175_$LT$collections..btree..node..NodeRef$LT$collections..btree..node..marker..Mut$LT$$u27$a$GT$$C$$u20$K$C$$u20$V$C$$u20$collections..btree..node..marker..LeafOrInternal$GT$$GT$9pop_front14_MSG_FILE_LINE17h568bcfc80fff1908E" @ 261 DATA
;   <collections::btree::node::Handle<collections::btree::node::NodeRef<BorrowType, K, V, NodeType>, collections::btree::node::marker::KV>>::new_kv::_MSG_FILE_LINE
    "_ZN178_$LT$collections..btree..node..Handle$LT$collections..btree..node..NodeRef$LT$BorrowType$C$$u20$K$C$$u20$V$C$$u20$NodeType$GT$$C$$u20$collections..btree..node..marker..KV$GT$$GT$6new_kv14_MSG_FILE_LINE17h29d6f74278d59e5cE" @ 262 DATA
;   compiler_builtins::reimpls::u128_div_mod
    _ZN17compiler_builtins7reimpls12u128_div_mod17h5bd4de262ea02368E @ 263
;   <collections::btree::node::Handle<collections::btree::node::NodeRef<BorrowType, K, V, NodeType>, collections::btree::node::marker::Edge>>::new_edge::_MSG_FILE_LINE
    "_ZN180_$LT$collections..btree..node..Handle$LT$collections..btree..node..NodeRef$LT$BorrowType$C$$u20$K$C$$u20$V$C$$u20$NodeType$GT$$C$$u20$collections..btree..node..marker..Edge$GT$$GT$8new_edge14_MSG_FILE_LINE17h20ccc9b4187097d5E" @ 264 DATA
;   <collections::btree::node::Handle<collections::btree::node::NodeRef<collections::btree::node::marker::Mut<'a>, K, V, collections::btree::node::marker::Leaf>, collections::btree::node::marker::Edge>>::insert_fit::_MSG_FILE_LINE
    "_ZN251_$LT$collections..btree..node..Handle$LT$collections..btree..node..NodeRef$LT$collections..btree..node..marker..Mut$LT$$u27$a$GT$$C$$u20$K$C$$u20$V$C$$u20$collections..btree..node..marker..Leaf$GT$$C$$u20$collections..btree..node..marker..Edge$GT$$GT$10insert_fit14_MSG_FILE_LINE17h3d3ea648685c22f4E" @ 265 DATA
;   <collections::btree::node::Handle<collections::btree::node::NodeRef<collections::btree::node::marker::Mut<'a>, K, V, collections::btree::node::marker::Internal>, collections::btree::node::marker::KV>>::bulk_steal_left::_MSG_FILE_LINE
    "_ZN253_$LT$collections..btree..node..Handle$LT$collections..btree..node..NodeRef$LT$collections..btree..node..marker..Mut$LT$$u27$a$GT$$C$$u20$K$C$$u20$V$C$$u20$collections..btree..node..marker..Internal$GT$$C$$u20$collections..btree..node..marker..KV$GT$$GT$15bulk_steal_left14_MSG_FILE_LINE17h5606d8c0be29d101E" @ 266 DATA
;   <collections::btree::node::Handle<collections::btree::node::NodeRef<collections::btree::node::marker::Mut<'a>, K, V, collections::btree::node::marker::Internal>, collections::btree::node::marker::KV>>::bulk_steal_left::_MSG_FILE_LINE
    "_ZN253_$LT$collections..btree..node..Handle$LT$collections..btree..node..NodeRef$LT$collections..btree..node..marker..Mut$LT$$u27$a$GT$$C$$u20$K$C$$u20$V$C$$u20$collections..btree..node..marker..Internal$GT$$C$$u20$collections..btree..node..marker..KV$GT$$GT$15bulk_steal_left14_MSG_FILE_LINE17h93c14c8de9b07fefE" @ 267 DATA
;   <collections::btree::node::Handle<collections::btree::node::NodeRef<collections::btree::node::marker::Mut<'a>, K, V, collections::btree::node::marker::Internal>, collections::btree::node::marker::KV>>::bulk_steal_left::_MSG_FILE_LINE
    "_ZN253_$LT$collections..btree..node..Handle$LT$collections..btree..node..NodeRef$LT$collections..btree..node..marker..Mut$LT$$u27$a$GT$$C$$u20$K$C$$u20$V$C$$u20$collections..btree..node..marker..Internal$GT$$C$$u20$collections..btree..node..marker..KV$GT$$GT$15bulk_steal_left14_MSG_FILE_LINE17he64cb4b825a621aeE" @ 268 DATA
;   <collections::btree::node::Handle<collections::btree::node::NodeRef<collections::btree::node::marker::Mut<'a>, K, V, collections::btree::node::marker::Internal>, collections::btree::node::marker::KV>>::bulk_steal_right::_MSG_FILE_LINE
    "_ZN253_$LT$collections..btree..node..Handle$LT$collections..btree..node..NodeRef$LT$collections..btree..node..marker..Mut$LT$$u27$a$GT$$C$$u20$K$C$$u20$V$C$$u20$collections..btree..node..marker..Internal$GT$$C$$u20$collections..btree..node..marker..KV$GT$$GT$16bulk_steal_right14_MSG_FILE_LINE17h28b9055026ab3239E" @ 269 DATA
;   <collections::btree::node::Handle<collections::btree::node::NodeRef<collections::btree::node::marker::Mut<'a>, K, V, collections::btree::node::marker::Internal>, collections::btree::node::marker::KV>>::bulk_steal_right::_MSG_FILE_LINE
    "_ZN253_$LT$collections..btree..node..Handle$LT$collections..btree..node..NodeRef$LT$collections..btree..node..marker..Mut$LT$$u27$a$GT$$C$$u20$K$C$$u20$V$C$$u20$collections..btree..node..marker..Internal$GT$$C$$u20$collections..btree..node..marker..KV$GT$$GT$16bulk_steal_right14_MSG_FILE_LINE17h8f42ee2b496335d1E" @ 270 DATA
;   <collections::btree::node::Handle<collections::btree::node::NodeRef<collections::btree::node::marker::Mut<'a>, K, V, collections::btree::node::marker::Internal>, collections::btree::node::marker::KV>>::bulk_steal_right::_MSG_FILE_LINE
    "_ZN253_$LT$collections..btree..node..Handle$LT$collections..btree..node..NodeRef$LT$collections..btree..node..marker..Mut$LT$$u27$a$GT$$C$$u20$K$C$$u20$V$C$$u20$collections..btree..node..marker..Internal$GT$$C$$u20$collections..btree..node..marker..KV$GT$$GT$16bulk_steal_right14_MSG_FILE_LINE17hfd7b5f96e9ed715cE" @ 271 DATA
;   <collections::btree::node::Handle<collections::btree::node::NodeRef<collections::btree::node::marker::Mut<'a>, K, V, collections::btree::node::marker::Internal>, collections::btree::node::marker::KV>>::merge::_MSG_FILE_LINE
    "_ZN253_$LT$collections..btree..node..Handle$LT$collections..btree..node..NodeRef$LT$collections..btree..node..marker..Mut$LT$$u27$a$GT$$C$$u20$K$C$$u20$V$C$$u20$collections..btree..node..marker..Internal$GT$$C$$u20$collections..btree..node..marker..KV$GT$$GT$5merge14_MSG_FILE_LINE17h91193a9d18e3b4d3E" @ 272 DATA
;   <collections::btree::node::Handle<collections::btree::node::NodeRef<collections::btree::node::marker::Mut<'a>, K, V, collections::btree::node::marker::Internal>, collections::btree::node::marker::Edge>>::insert_fit::_MSG_FILE_LINE
    "_ZN255_$LT$collections..btree..node..Handle$LT$collections..btree..node..NodeRef$LT$collections..btree..node..marker..Mut$LT$$u27$a$GT$$C$$u20$K$C$$u20$V$C$$u20$collections..btree..node..marker..Internal$GT$$C$$u20$collections..btree..node..marker..Edge$GT$$GT$10insert_fit14_MSG_FILE_LINE17h6448d7d5d9e3261aE" @ 273 DATA
;   <collections::btree::node::Handle<collections::btree::node::NodeRef<collections::btree::node::marker::Mut<'a>, K, V, collections::btree::node::marker::Internal>, collections::btree::node::marker::Edge>>::insert_fit::_MSG_FILE_LINE
    "_ZN255_$LT$collections..btree..node..Handle$LT$collections..btree..node..NodeRef$LT$collections..btree..node..marker..Mut$LT$$u27$a$GT$$C$$u20$K$C$$u20$V$C$$u20$collections..btree..node..marker..Internal$GT$$C$$u20$collections..btree..node..marker..Edge$GT$$GT$10insert_fit14_MSG_FILE_LINE17h9942522a69aeb3e4E" @ 274 DATA
;   <collections::btree::node::Handle<collections::btree::node::NodeRef<collections::btree::node::marker::Mut<'a>, K, V, collections::btree::node::marker::Internal>, collections::btree::node::marker::Edge>>::insert::_MSG_FILE_LINE
    "_ZN255_$LT$collections..btree..node..Handle$LT$collections..btree..node..NodeRef$LT$collections..btree..node..marker..Mut$LT$$u27$a$GT$$C$$u20$K$C$$u20$V$C$$u20$collections..btree..node..marker..Internal$GT$$C$$u20$collections..btree..node..marker..Edge$GT$$GT$6insert14_MSG_FILE_LINE17h00ea3ffbc4805a35E" @ 275 DATA
;   <collections::btree::node::Handle<collections::btree::node::NodeRef<collections::btree::node::marker::Mut<'a>, K, V, collections::btree::node::marker::LeafOrInternal>, collections::btree::node::marker::Edge>>::move_suffix::_MSG_FILE_LINE
    "_ZN261_$LT$collections..btree..node..Handle$LT$collections..btree..node..NodeRef$LT$collections..btree..node..marker..Mut$LT$$u27$a$GT$$C$$u20$K$C$$u20$V$C$$u20$collections..btree..node..marker..LeafOrInternal$GT$$C$$u20$collections..btree..node..marker..Edge$GT$$GT$11move_suffix14_MSG_FILE_LINE17h338c0a819d20e9b4E" @ 276 DATA
;   <collections::btree::node::Handle<collections::btree::node::NodeRef<collections::btree::node::marker::Mut<'a>, K, V, collections::btree::node::marker::LeafOrInternal>, collections::btree::node::marker::Edge>>::move_suffix::_MSG_FILE_LINE
    "_ZN261_$LT$collections..btree..node..Handle$LT$collections..btree..node..NodeRef$LT$collections..btree..node..marker..Mut$LT$$u27$a$GT$$C$$u20$K$C$$u20$V$C$$u20$collections..btree..node..marker..LeafOrInternal$GT$$C$$u20$collections..btree..node..marker..Edge$GT$$GT$11move_suffix14_MSG_FILE_LINE17h617b5a028ccad15cE" @ 277 DATA
;   <collections::btree::node::Handle<collections::btree::node::NodeRef<collections::btree::node::marker::Mut<'a>, K, V, collections::btree::node::marker::LeafOrInternal>, collections::btree::node::marker::Edge>>::move_suffix::_MSG_FILE_LINE
    "_ZN261_$LT$collections..btree..node..Handle$LT$collections..btree..node..NodeRef$LT$collections..btree..node..marker..Mut$LT$$u27$a$GT$$C$$u20$K$C$$u20$V$C$$u20$collections..btree..node..marker..LeafOrInternal$GT$$C$$u20$collections..btree..node..marker..Edge$GT$$GT$11move_suffix14_MSG_FILE_LINE17h98bdecf8efb5bc25E" @ 278 DATA
;   <std::error::<impl core::convert::From<collections::string::String> for alloc::boxed::Box<std::error::Error + core::marker::Sync + core::marker::Send + 'static>>::from::StringError as core::fmt::Debug>::fmt
    "_ZN286_$LT$std..error..$LT$impl$u20$core..convert..From$LT$collections..string..String$GT$$u20$for$u20$alloc..boxed..Box$LT$std..error..Error$u20$$u2b$$u20$core..marker..Sync$u20$$u2b$$u20$core..marker..Send$u20$$u2b$$u20$$u27$static$GT$$GT$..from..StringError$u20$as$u20$core..fmt..Debug$GT$3fmt17h931573ba4a1fa968E" @ 279
;   <std::error::<impl core::convert::From<collections::string::String> for alloc::boxed::Box<std::error::Error + core::marker::Sync + core::marker::Send + 'static>>::from::StringError as std::error::Error>::description
    "_ZN287_$LT$std..error..$LT$impl$u20$core..convert..From$LT$collections..string..String$GT$$u20$for$u20$alloc..boxed..Box$LT$std..error..Error$u20$$u2b$$u20$core..marker..Sync$u20$$u2b$$u20$core..marker..Send$u20$$u2b$$u20$$u27$static$GT$$GT$..from..StringError$u20$as$u20$std..error..Error$GT$11description17h2314beb64d52169eE" @ 280
;   <std::error::<impl core::convert::From<collections::string::String> for alloc::boxed::Box<std::error::Error + core::marker::Sync + core::marker::Send + 'static>>::from::StringError as core::fmt::Display>::fmt
    "_ZN288_$LT$std..error..$LT$impl$u20$core..convert..From$LT$collections..string..String$GT$$u20$for$u20$alloc..boxed..Box$LT$std..error..Error$u20$$u2b$$u20$core..marker..Sync$u20$$u2b$$u20$core..marker..Send$u20$$u2b$$u20$$u27$static$GT$$GT$..from..StringError$u20$as$u20$core..fmt..Display$GT$3fmt17h7e5faa7fae50b25fE" @ 281
;   <alloc::rc::Rc<str>>::__from_str
    "_ZN33_$LT$alloc..rc..Rc$LT$str$GT$$GT$10__from_str17hebb3b2d8786210d5E" @ 282
;   <core::cell::RefCell<T>>::into_inner::_MSG_FILE_LINE
    "_ZN37_$LT$core..cell..RefCell$LT$T$GT$$GT$10into_inner14_MSG_FILE_LINE17ha226dad82402aa0bE" @ 283 DATA
;   <core::iter::Peekable<I>>::peek::_MSG_FILE_LINE
    "_ZN38_$LT$core..iter..Peekable$LT$I$GT$$GT$4peek14_MSG_FILE_LINE17h23745bfd91f153c0E" @ 284 DATA
;   <core::option::Option<T>>::get_or_insert::_MSG_FILE_LINE
    "_ZN38_$LT$core..option..Option$LT$T$GT$$GT$13get_or_insert14_MSG_FILE_LINE17h608164a080bd3c36E" @ 285 DATA
;   <core::option::Option<T>>::get_or_insert_with::_MSG_FILE_LINE
    "_ZN38_$LT$core..option..Option$LT$T$GT$$GT$18get_or_insert_with14_MSG_FILE_LINE17hf5b8cf587934f773E" @ 286 DATA
;   <core::option::Option<T>>::unwrap::_MSG_FILE_LINE
    "_ZN38_$LT$core..option..Option$LT$T$GT$$GT$6unwrap14_MSG_FILE_LINE17h3f6ef53dfa634880E" @ 287 DATA
;   <collections::vec::Vec<T>>::drain::_MSG_FILE_LINE
    "_ZN39_$LT$collections..vec..Vec$LT$T$GT$$GT$5drain14_MSG_FILE_LINE17h93bc4a21ba5b15beE" @ 288 DATA
;   <collections::vec::Vec<T>>::drain::_MSG_FILE_LINE
    "_ZN39_$LT$collections..vec..Vec$LT$T$GT$$GT$5drain14_MSG_FILE_LINE17h998ba8dee93d76b7E" @ 289 DATA
;   <collections::vec::Vec<T>>::insert::_MSG_FILE_LINE
    "_ZN39_$LT$collections..vec..Vec$LT$T$GT$$GT$6insert14_MSG_FILE_LINE17h3c0a3ccf63e5de79E" @ 290 DATA
;   <collections::vec::Vec<T>>::remove::_MSG_FILE_LINE
    "_ZN39_$LT$collections..vec..Vec$LT$T$GT$$GT$6remove14_MSG_FILE_LINE17hb6d2233d4ab6ad3eE" @ 291 DATA
;   <collections::vec::Vec<T>>::split_off::_MSG_FILE_LINE
    "_ZN39_$LT$collections..vec..Vec$LT$T$GT$$GT$9split_off14_MSG_FILE_LINE17h77a125210c8ed796E" @ 292 DATA
;   <i8 as std::net::NetInt>::to_be
    "_ZN39_$LT$i8$u20$as$u20$std..net..NetInt$GT$5to_be17h26dfc3f57388c654E" @ 293
;   <i8 as std::net::NetInt>::from_be
    "_ZN39_$LT$i8$u20$as$u20$std..net..NetInt$GT$7from_be17h2c6cecc33f2e0ae9E" @ 294
;   <u8 as std::net::NetInt>::to_be
    "_ZN39_$LT$u8$u20$as$u20$std..net..NetInt$GT$5to_be17hdc2fed59c280aa8cE" @ 295
;   <u8 as std::net::NetInt>::from_be
    "_ZN39_$LT$u8$u20$as$u20$std..net..NetInt$GT$7from_be17h8931fef7650de7d7E" @ 296
;   rdp::<impl core::convert::From<rdp::Array> for collections::vec::Vec<[f64; 2]>>::from
    "_ZN3rdp121_$LT$impl$u20$core..convert..From$LT$rdp..Array$GT$$u20$for$u20$collections..vec..Vec$LT$$u5b$f64$u3b$$u20$2$u5d$$GT$$GT$4from17h1f9392c740c31732E" @ 297
;   rdp::spare
    _ZN3rdp5spare17hcc1cb0701364b339E @ 298
;   std::sys_common::thread_info::set
    _ZN3std10sys_common11thread_info3set17h955e75eaeda6aba3E @ 299
;   std::sys_common::thread_local::StaticKey::new
    _ZN3std10sys_common12thread_local9StaticKey3new17h8a6d5c5080b1d12bE @ 300
;   std::sys_common::thread_local::StaticKey::lazy_init
    _ZN3std10sys_common12thread_local9StaticKey9lazy_init17h37cd4d3282fd1620E @ 301
;   std::sys_common::net::TcpListener::bind
    _ZN3std10sys_common3net11TcpListener4bind17hab84aa2b851359e0E @ 302
;   std::sys_common::net::TcpStream::connect
    _ZN3std10sys_common3net9TcpStream7connect17h97282473e5886c37E @ 303
;   std::sys_common::net::UdpSocket::bind
    _ZN3std10sys_common3net9UdpSocket4bind17he857f742d6621abfE @ 304
;   std::sys_common::net::UdpSocket::connect
    _ZN3std10sys_common3net9UdpSocket7connect17hd317bcb53c07a7afE @ 305
;   std::sys_common::net::UdpSocket::send_to
    _ZN3std10sys_common3net9UdpSocket7send_to17h6c2d10ef995fa568E @ 306
;   std::sys_common::util::min_stack
    _ZN3std10sys_common4util9min_stack17hd2666c54df8c078eE @ 307
;   std::sys_common::wtf8::slice_error_fail
    _ZN3std10sys_common4wtf816slice_error_fail17h4e453ac90399bb40E @ 308
;   std::sys_common::wtf8::Wtf8Buf::push_code_point_unchecked
    _ZN3std10sys_common4wtf87Wtf8Buf25push_code_point_unchecked17h277888f4ba4e2da8E @ 309
;   std::sys_common::mutex::raw
    _ZN3std10sys_common5mutex3raw17h3422859b46155bceE @ 310
;   std::sys_common::mutex::Mutex::new
    _ZN3std10sys_common5mutex5Mutex3new17haa4a8bc28914ccf0E @ 311
;   std::sys_common::memchr::fallback::memchr
    _ZN3std10sys_common6memchr8fallback6memchr17h4747376b2a797b55E @ 312
;   std::sys_common::memchr::fallback::memrchr
    _ZN3std10sys_common6memchr8fallback7memrchr17h3c67fd7f9c2ce79eE @ 313
;   std::sys_common::poison::Flag::new
    _ZN3std10sys_common6poison4Flag3new17ha0f79e91416dab37E @ 314
;   std::sys_common::rwlock::RWLock::new
    _ZN3std10sys_common6rwlock6RWLock3new17h1ba2b68447479083E @ 315
;   std::collections::hash::map::robin_hood::_FILE_LINE
    _ZN3std11collections4hash3map10robin_hood10_FILE_LINE17h7f7616d18fd55cebE @ 316 DATA
;   std::collections::hash::map::RandomState::new::KEYS
    _ZN3std11collections4hash3map11RandomState3new4KEYS17h333979237267b06dE @ 317 DATA
;   std::collections::hash::map::DefaultHasher::new
    _ZN3std11collections4hash3map13DefaultHasher3new17h5737fa8e141f28e8E @ 318
;   std::collections::hash::map::search_hashed::_FILE_LINE
    _ZN3std11collections4hash3map13search_hashed10_FILE_LINE17h9df5311a6da58d64E @ 319 DATA
;   std::collections::hash::map::DefaultResizePolicy::raw_capacity::_FILE_LINE
    _ZN3std11collections4hash3map19DefaultResizePolicy12raw_capacity10_FILE_LINE17h07a85beb5c9000f7E @ 320 DATA
;   std::collections::hash::map::DefaultResizePolicy::new
    _ZN3std11collections4hash3map19DefaultResizePolicy3new17h9efe29815e419152E @ 321
;   std::collections::hash::table::round_up_to_next::_FILE_LINE
    _ZN3std11collections4hash5table16round_up_to_next10_FILE_LINE17h63cfa9f96d662135E @ 322 DATA
;   std::collections::hash::table::TaggedHashUintPtr::new::_FILE_LINE
    _ZN3std11collections4hash5table17TaggedHashUintPtr3new10_FILE_LINE17h45fd7cd143a49b42E @ 323 DATA
;   std::collections::hash::table::calculate_allocation
    _ZN3std11collections4hash5table20calculate_allocation17hdd2751235f4e0712E @ 324
;   std::fs::DirBuilder::new
    _ZN3std2fs10DirBuilder3new17hafaede78ff4cf79dE @ 325
;   std::fs::DirBuilder::_create
    _ZN3std2fs10DirBuilder7_create17h7781bbb873795ce0E @ 326
;   std::fs::DirBuilder::recursive
    _ZN3std2fs10DirBuilder9recursive17h328890b3f8d64955E @ 327
;   std::fs::OpenOptions::create_new
    _ZN3std2fs11OpenOptions10create_new17h020a9c814625b0acE @ 328
;   std::fs::OpenOptions::new
    _ZN3std2fs11OpenOptions3new17h1d51c5a408d64a46E @ 329
;   std::fs::OpenOptions::read
    _ZN3std2fs11OpenOptions4read17hf816f134fd1e2837E @ 330
;   std::fs::OpenOptions::_open
    _ZN3std2fs11OpenOptions5_open17hd07914242f055d60E @ 331
;   std::fs::OpenOptions::write
    _ZN3std2fs11OpenOptions5write17hcfbc34bcadfb85f3E @ 332
;   std::fs::OpenOptions::append
    _ZN3std2fs11OpenOptions6append17h0c9377145726abc8E @ 333
;   std::fs::OpenOptions::create
    _ZN3std2fs11OpenOptions6create17h9450aa0ffb0cad92E @ 334
;   std::fs::OpenOptions::truncate
    _ZN3std2fs11OpenOptions8truncate17ha93343350834fff9E @ 335
;   std::fs::Permissions::set_readonly
    _ZN3std2fs11Permissions12set_readonly17hd34b21d65f35d1b7E @ 336
;   std::fs::Permissions::readonly
    _ZN3std2fs11Permissions8readonly17h8e5656c164e18e16E @ 337
;   std::fs::File::set_permissions
    _ZN3std2fs4File15set_permissions17h770e78e753853937E @ 338
;   std::fs::File::set_len
    _ZN3std2fs4File7set_len17hf15bbac8af4add31E @ 339
;   std::fs::File::metadata
    _ZN3std2fs4File8metadata17h3f3a7b6ec4eafaf5E @ 340
;   std::fs::File::sync_all
    _ZN3std2fs4File8sync_all17h0c8f205e8cbe5b3eE @ 341
;   std::fs::File::sync_data
    _ZN3std2fs4File9sync_data17hff0f84e57e05622fE @ 342
;   std::fs::File::try_clone
    _ZN3std2fs4File9try_clone17h11b61cbd6122f8f7E @ 343
;   std::fs::DirEntry::path
    _ZN3std2fs8DirEntry4path17hc202ff72c8566009E @ 344
;   std::fs::DirEntry::metadata
    _ZN3std2fs8DirEntry8metadata17h86618e9999a98d1cE @ 345
;   std::fs::DirEntry::file_name
    _ZN3std2fs8DirEntry9file_name17hf63c5de6c94cb687E @ 346
;   std::fs::DirEntry::file_type
    _ZN3std2fs8DirEntry9file_type17h65da8ce431cac0f0E @ 347
;   std::fs::FileType::is_symlink
    _ZN3std2fs8FileType10is_symlink17h34db9ba54cae6326E @ 348
;   std::fs::FileType::is_dir
    _ZN3std2fs8FileType6is_dir17hecc783169d616007E @ 349
;   std::fs::FileType::is_file
    _ZN3std2fs8FileType7is_file17had3f1315edad6f3fE @ 350
;   std::fs::Metadata::permissions
    _ZN3std2fs8Metadata11permissions17hb0b418e3adb5d0b9E @ 351
;   std::fs::Metadata::len
    _ZN3std2fs8Metadata3len17ha26864a2aa43c022E @ 352
;   std::fs::Metadata::is_dir
    _ZN3std2fs8Metadata6is_dir17h19b3fffc70071484E @ 353
;   std::fs::Metadata::created
    _ZN3std2fs8Metadata7created17h13f61e7397208b36E @ 354
;   std::fs::Metadata::is_file
    _ZN3std2fs8Metadata7is_file17h6617e23f4981f5d6E @ 355
;   std::fs::Metadata::accessed
    _ZN3std2fs8Metadata8accessed17h5946f7e857b4f67fE @ 356
;   std::fs::Metadata::modified
    _ZN3std2fs8Metadata8modified17h3d3aa91d118855feE @ 357
;   std::fs::Metadata::file_type
    _ZN3std2fs8Metadata9file_type17h8bcd484b34d71575E @ 358
;   std::io::read_one_byte
    _ZN3std2io13read_one_byte17hbc8672ba27503532E @ 359
;   std::io::util::sink
    _ZN3std2io4util4sink17hc89aa32a11bc5f67E @ 360
;   std::io::util::empty
    _ZN3std2io4util5empty17hea76fba96f374b58E @ 361
;   std::io::util::repeat
    _ZN3std2io4util6repeat17h838f113359e6d050E @ 362
;   std::io::error::Error::into_inner
    _ZN3std2io5error5Error10into_inner17he7ae729d0479c263E @ 363
;   std::io::error::Error::raw_os_error
    _ZN3std2io5error5Error12raw_os_error17h57238ca320191a8eE @ 364
;   std::io::error::Error::last_os_error
    _ZN3std2io5error5Error13last_os_error17h68355bef3dce5334E @ 365
;   std::io::error::Error::from_raw_os_error
    _ZN3std2io5error5Error17from_raw_os_error17h37f08167ca0e7605E @ 366
;   std::io::error::Error::_new
    _ZN3std2io5error5Error4_new17h71353d0615a01bceE @ 367
;   std::io::error::Error::kind
    _ZN3std2io5error5Error4kind17h6ec3e4f78f8c9be7E @ 368
;   std::io::error::Error::get_mut
    _ZN3std2io5error5Error7get_mut17hb6a9cb4e676b0994E @ 369
;   std::io::error::Error::get_ref
    _ZN3std2io5error5Error7get_ref17h2a1b22062995e663E @ 370
;   std::io::stdio::Stdin::lock
    _ZN3std2io5stdio5Stdin4lock17h3ce202ab79777b15E @ 371
;   std::io::stdio::Stdin::read_line
    _ZN3std2io5stdio5Stdin9read_line17h15352e7d37f9c842E @ 372
;   std::io::stdio::stdin
    _ZN3std2io5stdio5stdin17h3c5cb4e26fbd2864E @ 373
;   std::io::stdio::Stderr::lock
    _ZN3std2io5stdio6Stderr4lock17hdb9e09c9d7cd58b0E @ 374
;   std::io::stdio::Stdout::lock
    _ZN3std2io5stdio6Stdout4lock17h2babde4560b2de15E @ 375
;   std::io::stdio::_print
    _ZN3std2io5stdio6_print17ha22e22c5d5995e30E @ 376
;   std::io::stdio::stderr
    _ZN3std2io5stdio6stderr17h70b5a229c2adaa45E @ 377
;   std::io::stdio::stdout
    _ZN3std2io5stdio6stdout17h00a4979aa89e7fe2E @ 378
;   std::io::stdio::_eprint
    _ZN3std2io5stdio7_eprint17h6fba2859362a0febE @ 379
;   std::io::stdio::set_panic
    _ZN3std2io5stdio9set_panic17heaa2fe02a070e001E @ 380
;   std::io::stdio::set_print
    _ZN3std2io5stdio9set_print17hc34ba04b17fbaec2E @ 381
;   std::rt::lang_start
    _ZN3std2rt10lang_start17h9c25c210958cd3d0E @ 382
;   std::env::_remove_var
    _ZN3std3env11_remove_var17h5b9b8d64a28c0c97E @ 383
;   std::env::current_dir
    _ZN3std3env11current_dir17hee2dc70f835c65aeE @ 384
;   std::env::current_exe
    _ZN3std3env11current_exe17hf1bb4f6721aa703cE @ 385
;   std::env::_var
    _ZN3std3env4_var17ha76947999120535eE @ 386
;   std::env::args
    _ZN3std3env4args17h8b14bf409abe5a53E @ 387
;   std::env::vars
    _ZN3std3env4vars17ha9122d1b53914aa6E @ 388
;   std::env::_var_os
    _ZN3std3env7_var_os17h0e8f479536941b41E @ 389
;   std::env::args_os
    _ZN3std3env7args_os17h0be4fef8b0bc54bfE @ 390
;   std::env::vars_os
    _ZN3std3env7vars_os17h360bc03b03f93452E @ 391
;   std::env::_set_var
    _ZN3std3env8_set_var17hb957313ac032fe28E @ 392
;   std::env::home_dir
    _ZN3std3env8home_dir17h0aca861bb1a087c1E @ 393
;   std::env::temp_dir
    _ZN3std3env8temp_dir17hd28d0e187255cc18E @ 394
;   std::ffi::c_str::<impl core::convert::From<std::ffi::c_str::NulError> for std::io::error::Error>::from
    "_ZN3std3ffi5c_str104_$LT$impl$u20$core..convert..From$LT$std..ffi..c_str..NulError$GT$$u20$for$u20$std..io..error..Error$GT$4from17h88754e63b048fd04E" @ 395
;   std::ffi::c_str::<impl core::convert::From<std::ffi::c_str::CString> for collections::vec::Vec<u8>>::from
    "_ZN3std3ffi5c_str113_$LT$impl$u20$core..convert..From$LT$std..ffi..c_str..CString$GT$$u20$for$u20$collections..vec..Vec$LT$u8$GT$$GT$4from17hd696fae6bc56c884E" @ 396
;   std::ffi::c_str::<impl core::convert::From<&'a std::ffi::c_str::CStr> for alloc::boxed::Box<std::ffi::c_str::CStr>>::from
    "_ZN3std3ffi5c_str140_$LT$impl$u20$core..convert..From$LT$$RF$$u27$a$u20$std..ffi..c_str..CStr$GT$$u20$for$u20$alloc..boxed..Box$LT$std..ffi..c_str..CStr$GT$$GT$4from17haaa2afa379c28dcfE" @ 397
;   std::ffi::c_str::IntoStringError::utf8_error
    _ZN3std3ffi5c_str15IntoStringError10utf8_error17h8f83f5025276fa16E @ 398
;   std::ffi::c_str::IntoStringError::into_cstring
    _ZN3std3ffi5c_str15IntoStringError12into_cstring17h9467d92c6d20e2a1E @ 399
;   std::ffi::c_str::CStr::into_c_string
    _ZN3std3ffi5c_str4CStr13into_c_string17h2acdb266cccccf5fE @ 400
;   std::ffi::c_str::CStr::to_string_lossy
    _ZN3std3ffi5c_str4CStr15to_string_lossy17haf34189f63344288E @ 401
;   std::ffi::c_str::CStr::to_bytes_with_nul
    _ZN3std3ffi5c_str4CStr17to_bytes_with_nul17h18aba5826844a5cbE @ 402
;   std::ffi::c_str::CStr::from_bytes_with_nul
    _ZN3std3ffi5c_str4CStr19from_bytes_with_nul17he9a355697b5bec76E @ 403
;   std::ffi::c_str::CStr::from_bytes_with_nul_unchecked
    _ZN3std3ffi5c_str4CStr29from_bytes_with_nul_unchecked17h0b46046b5864a9ebE @ 404
;   std::ffi::c_str::CStr::as_ptr
    _ZN3std3ffi5c_str4CStr6as_ptr17h4694be9a7659e484E @ 405
;   std::ffi::c_str::CStr::to_str
    _ZN3std3ffi5c_str4CStr6to_str17hc03da49a7afedbe1E @ 406
;   std::ffi::c_str::CStr::from_ptr
    _ZN3std3ffi5c_str4CStr8from_ptr17hb9e2831456c47b40E @ 407
;   std::ffi::c_str::CStr::to_bytes
    _ZN3std3ffi5c_str4CStr8to_bytes17h5c2f2e6d7a7a864dE @ 408
;   std::ffi::c_str::CString::into_bytes
    _ZN3std3ffi5c_str7CString10into_bytes17hba0822fcc85a89f9E @ 409
;   std::ffi::c_str::CString::into_string
    _ZN3std3ffi5c_str7CString11into_string17hd1762da2569ea127E @ 410
;   std::ffi::c_str::CString::into_boxed_c_str
    _ZN3std3ffi5c_str7CString16into_boxed_c_str17hb84fa4cc19ed1d8eE @ 411
;   std::ffi::c_str::CString::as_bytes_with_nul
    _ZN3std3ffi5c_str7CString17as_bytes_with_nul17he073ee6b37a05bb4E @ 412
;   std::ffi::c_str::CString::from_vec_unchecked
    _ZN3std3ffi5c_str7CString18from_vec_unchecked17hee2dd3af3b88c362E @ 413
;   std::ffi::c_str::CString::into_bytes_with_nul
    _ZN3std3ffi5c_str7CString19into_bytes_with_nul17h5d53eaec45a52464E @ 414
;   std::ffi::c_str::CString::_new
    _ZN3std3ffi5c_str7CString4_new17he106c284577f05adE @ 415
;   std::ffi::c_str::CString::as_bytes
    _ZN3std3ffi5c_str7CString8as_bytes17ha012f00007e56412E @ 416
;   std::ffi::c_str::CString::as_c_str
    _ZN3std3ffi5c_str7CString8as_c_str17h89b3640da0cafc7eE @ 417
;   std::ffi::c_str::CString::from_raw
    _ZN3std3ffi5c_str7CString8from_raw17haf64acb7f3753fc7E @ 418
;   std::ffi::c_str::CString::into_raw
    _ZN3std3ffi5c_str7CString8into_raw17h284bb35cbe361c2fE @ 419
;   std::ffi::c_str::NulError::nul_position
    _ZN3std3ffi5c_str8NulError12nul_position17h2d7ca093793fbeaeE @ 420
;   std::ffi::c_str::NulError::into_vec
    _ZN3std3ffi5c_str8NulError8into_vec17h91426bdd17b78e8eE @ 421
;   std::ffi::c_str::<impl core::default::Default for alloc::boxed::Box<std::ffi::c_str::CStr>>::default
    "_ZN3std3ffi5c_str99_$LT$impl$u20$core..default..Default$u20$for$u20$alloc..boxed..Box$LT$std..ffi..c_str..CStr$GT$$GT$7default17h8d080ac2dab97614E" @ 422
;   std::ffi::os_str::<impl core::default::Default for alloc::boxed::Box<std::ffi::os_str::OsStr>>::default
    "_ZN3std3ffi6os_str101_$LT$impl$u20$core..default..Default$u20$for$u20$alloc..boxed..Box$LT$std..ffi..os_str..OsStr$GT$$GT$7default17h6fcd8999f60ef88bE" @ 423
;   std::ffi::os_str::<impl core::convert::AsRef<std::ffi::os_str::OsStr> for collections::string::String>::as_ref
    "_ZN3std3ffi6os_str109_$LT$impl$u20$core..convert..AsRef$LT$std..ffi..os_str..OsStr$GT$$u20$for$u20$collections..string..String$GT$6as_ref17h0c4489daed3255b6E" @ 424
;   std::ffi::os_str::<impl core::convert::From<&'a std::ffi::os_str::OsStr> for alloc::boxed::Box<std::ffi::os_str::OsStr>>::from
    "_ZN3std3ffi6os_str144_$LT$impl$u20$core..convert..From$LT$$RF$$u27$a$u20$std..ffi..os_str..OsStr$GT$$u20$for$u20$alloc..boxed..Box$LT$std..ffi..os_str..OsStr$GT$$GT$4from17h42c6ca133c2096edE" @ 425
;   std::ffi::os_str::OsStr::from_inner
    _ZN3std3ffi6os_str5OsStr10from_inner17h622626fd0067aa9eE @ 426
;   std::ffi::os_str::OsStr::to_os_string
    _ZN3std3ffi6os_str5OsStr12to_os_string17h52c4670a8620cedcE @ 427
;   std::ffi::os_str::OsStr::into_os_string
    _ZN3std3ffi6os_str5OsStr14into_os_string17he15fa04510abcb38E @ 428
;   std::ffi::os_str::OsStr::to_string_lossy
    _ZN3std3ffi6os_str5OsStr15to_string_lossy17h86b7b3c09df49498E @ 429
;   std::ffi::os_str::OsStr::len
    _ZN3std3ffi6os_str5OsStr3len17hd730142a0873b8ddE @ 430
;   std::ffi::os_str::OsStr::bytes
    _ZN3std3ffi6os_str5OsStr5bytes17h4943072fd57dfe71E @ 431
;   std::ffi::os_str::OsStr::to_str
    _ZN3std3ffi6os_str5OsStr6to_str17h97a6c4eab88fccacE @ 432
;   std::ffi::os_str::OsStr::is_empty
    _ZN3std3ffi6os_str5OsStr8is_empty17h210bb92d2f9f61feE @ 433
;   std::ffi::os_str::<impl core::cmp::PartialEq<std::ffi::os_str::OsStr> for str>::eq
    "_ZN3std3ffi6os_str85_$LT$impl$u20$core..cmp..PartialEq$LT$std..ffi..os_str..OsStr$GT$$u20$for$u20$str$GT$2eq17h256f0cba6caf4d6eE" @ 434
;   std::ffi::os_str::<impl core::convert::AsRef<std::ffi::os_str::OsStr> for str>::as_ref
    "_ZN3std3ffi6os_str85_$LT$impl$u20$core..convert..AsRef$LT$std..ffi..os_str..OsStr$GT$$u20$for$u20$str$GT$6as_ref17hd143089cbea46b24E" @ 435
;   std::ffi::os_str::<impl core::cmp::PartialEq<std::ffi::os_str::OsString> for str>::eq
    "_ZN3std3ffi6os_str88_$LT$impl$u20$core..cmp..PartialEq$LT$std..ffi..os_str..OsString$GT$$u20$for$u20$str$GT$2eq17he8aaa201d3f11ff1E" @ 436
;   std::ffi::os_str::OsString::into_string
    _ZN3std3ffi6os_str8OsString11into_string17h15e9d44efa00c6aeE @ 437
;   std::ffi::os_str::OsString::reserve_exact
    _ZN3std3ffi6os_str8OsString13reserve_exact17h2e4956baa819202bE @ 438
;   std::ffi::os_str::OsString::shrink_to_fit
    _ZN3std3ffi6os_str8OsString13shrink_to_fit17h1345445b63c041d5E @ 439
;   std::ffi::os_str::OsString::with_capacity
    _ZN3std3ffi6os_str8OsString13with_capacity17h832c615fb17f5426E @ 440
;   std::ffi::os_str::OsString::into_boxed_os_str
    _ZN3std3ffi6os_str8OsString17into_boxed_os_str17he13d85834a23c868E @ 441
;   std::ffi::os_str::OsString::new
    _ZN3std3ffi6os_str8OsString3new17haf04136469db7397E @ 442
;   std::ffi::os_str::OsString::clear
    _ZN3std3ffi6os_str8OsString5clear17h7dfc4b81d5989b98E @ 443
;   std::ffi::os_str::OsString::reserve
    _ZN3std3ffi6os_str8OsString7reserve17h0f6b488fdcb704dcE @ 444
;   std::ffi::os_str::OsString::capacity
    _ZN3std3ffi6os_str8OsString8capacity17hdc38951988eef648E @ 445
;   std::ffi::os_str::OsString::as_os_str
    _ZN3std3ffi6os_str8OsString9as_os_str17hc031d4ded5e7f61cE @ 446
;   std::net::lookup_host
    _ZN3std3net11lookup_host17h2b38b3fbdb9fb388E @ 447
;   std::net::ip::IpAddr::is_loopback
    _ZN3std3net2ip6IpAddr11is_loopback17h50d486fbfe07c011E @ 448
;   std::net::ip::IpAddr::is_multicast
    _ZN3std3net2ip6IpAddr12is_multicast17h385088c8dea83de4E @ 449
;   std::net::ip::IpAddr::is_unspecified
    _ZN3std3net2ip6IpAddr14is_unspecified17hbcb051ec09e54eb4E @ 450
;   std::net::ip::IpAddr::is_documentation
    _ZN3std3net2ip6IpAddr16is_documentation17hbd8c48eff7a2cfaaE @ 451
;   std::net::ip::IpAddr::is_ipv4
    _ZN3std3net2ip6IpAddr7is_ipv417h9dfddb327c0a18d3E @ 452
;   std::net::ip::IpAddr::is_ipv6
    _ZN3std3net2ip6IpAddr7is_ipv617h0a2f7a7c9f6de432E @ 453
;   std::net::ip::IpAddr::is_global
    _ZN3std3net2ip6IpAddr9is_global17h24704026fb391528E @ 454
;   std::net::ip::<impl core::convert::From<std::net::ip::Ipv4Addr> for u32>::from
    "_ZN3std3net2ip83_$LT$impl$u20$core..convert..From$LT$std..net..ip..Ipv4Addr$GT$$u20$for$u20$u32$GT$4from17hde3394dbc5453088E" @ 455
;   std::net::ip::<impl core::convert::From<std::net::ip::Ipv6Addr> for u128>::from
    "_ZN3std3net2ip84_$LT$impl$u20$core..convert..From$LT$std..net..ip..Ipv6Addr$GT$$u20$for$u20$u128$GT$4from17h14b69bfc84c60902E" @ 456
;   std::net::ip::Ipv4Addr::is_private
    _ZN3std3net2ip8Ipv4Addr10is_private17h57250606436378ffE @ 457
;   std::net::ip::Ipv4Addr::is_loopback
    _ZN3std3net2ip8Ipv4Addr11is_loopback17h10ab55da65c7b5daE @ 458
;   std::net::ip::Ipv4Addr::is_broadcast
    _ZN3std3net2ip8Ipv4Addr12is_broadcast17h36e88fc47d12519fE @ 459
;   std::net::ip::Ipv4Addr::is_multicast
    _ZN3std3net2ip8Ipv4Addr12is_multicast17hd0e0fbf63ac7bc5cE @ 460
;   std::net::ip::Ipv4Addr::is_link_local
    _ZN3std3net2ip8Ipv4Addr13is_link_local17h1eef841ad95013c6E @ 461
;   std::net::ip::Ipv4Addr::is_unspecified
    _ZN3std3net2ip8Ipv4Addr14is_unspecified17hd15b0ec14a31dcddE @ 462
;   std::net::ip::Ipv4Addr::to_ipv6_mapped
    _ZN3std3net2ip8Ipv4Addr14to_ipv6_mapped17h8666f8e00825cbbfE @ 463
;   std::net::ip::Ipv4Addr::is_documentation
    _ZN3std3net2ip8Ipv4Addr16is_documentation17haef25384ebd4f3baE @ 464
;   std::net::ip::Ipv4Addr::to_ipv6_compatible
    _ZN3std3net2ip8Ipv4Addr18to_ipv6_compatible17hb56a6fe9063f4616E @ 465
;   std::net::ip::Ipv4Addr::new
    _ZN3std3net2ip8Ipv4Addr3new17hbb9d08cc27351de0E @ 466
;   std::net::ip::Ipv4Addr::octets
    _ZN3std3net2ip8Ipv4Addr6octets17hf15582c4ca6ba5c9E @ 467
;   std::net::ip::Ipv4Addr::is_global
    _ZN3std3net2ip8Ipv4Addr9is_global17h4348efefa66e7e01E @ 468
;   std::net::ip::Ipv6Addr::is_loopback
    _ZN3std3net2ip8Ipv6Addr11is_loopback17hbdd8b0c8fc94510eE @ 469
;   std::net::ip::Ipv6Addr::is_multicast
    _ZN3std3net2ip8Ipv6Addr12is_multicast17h925b6dde9abc4343E @ 470
;   std::net::ip::Ipv6Addr::is_unspecified
    _ZN3std3net2ip8Ipv6Addr14is_unspecified17h1d335ec349672f1bE @ 471
;   std::net::ip::Ipv6Addr::is_unique_local
    _ZN3std3net2ip8Ipv6Addr15is_unique_local17h697255150e5b5349E @ 472
;   std::net::ip::Ipv6Addr::multicast_scope
    _ZN3std3net2ip8Ipv6Addr15multicast_scope17h762476a615f98d62E @ 473
;   std::net::ip::Ipv6Addr::is_documentation
    _ZN3std3net2ip8Ipv6Addr16is_documentation17haddc60651fdc3c51E @ 474
;   std::net::ip::Ipv6Addr::is_unicast_global
    _ZN3std3net2ip8Ipv6Addr17is_unicast_global17hb88320a2d892813cE @ 475
;   std::net::ip::Ipv6Addr::is_unicast_link_local
    _ZN3std3net2ip8Ipv6Addr21is_unicast_link_local17h8420205d005b8ae1E @ 476
;   std::net::ip::Ipv6Addr::is_unicast_site_local
    _ZN3std3net2ip8Ipv6Addr21is_unicast_site_local17h964a7a8755b9bce8E @ 477
;   std::net::ip::Ipv6Addr::new
    _ZN3std3net2ip8Ipv6Addr3new17h9aba3debb1bd75f1E @ 478
;   std::net::ip::Ipv6Addr::octets
    _ZN3std3net2ip8Ipv6Addr6octets17hc3525a47dc976ec6E @ 479
;   std::net::ip::Ipv6Addr::to_ipv4
    _ZN3std3net2ip8Ipv6Addr7to_ipv417hd32aaf5514cd8f75E @ 480
;   std::net::ip::Ipv6Addr::segments
    _ZN3std3net2ip8Ipv6Addr8segments17h74d62fc60cdfdb8bE @ 481
;   std::net::ip::Ipv6Addr::is_global
    _ZN3std3net2ip8Ipv6Addr9is_global17h1b6f7625732d8ba0E @ 482
;   std::net::tcp::TcpListener::local_addr
    _ZN3std3net3tcp11TcpListener10local_addr17he694487478c4d2f1E @ 483
;   std::net::tcp::TcpListener::take_error
    _ZN3std3net3tcp11TcpListener10take_error17h8243d73759c605d7E @ 484
;   std::net::tcp::TcpListener::set_only_v6
    _ZN3std3net3tcp11TcpListener11set_only_v617hcc99b64f73cbaaa7E @ 485
;   std::net::tcp::TcpListener::set_nonblocking
    _ZN3std3net3tcp11TcpListener15set_nonblocking17h391001278cc3d0f0E @ 486
;   std::net::tcp::TcpListener::ttl
    _ZN3std3net3tcp11TcpListener3ttl17h310e5714e2359e39E @ 487
;   std::net::tcp::TcpListener::accept
    _ZN3std3net3tcp11TcpListener6accept17h99b354c93806eb69E @ 488
;   std::net::tcp::TcpListener::only_v6
    _ZN3std3net3tcp11TcpListener7only_v617h050b3651f76499feE @ 489
;   std::net::tcp::TcpListener::set_ttl
    _ZN3std3net3tcp11TcpListener7set_ttl17hde77c53696eb4c49E @ 490
;   std::net::tcp::TcpListener::incoming
    _ZN3std3net3tcp11TcpListener8incoming17h636780bcab7b7ff0E @ 491
;   std::net::tcp::TcpListener::try_clone
    _ZN3std3net3tcp11TcpListener9try_clone17hbb145b26e28831dfE @ 492
;   std::net::tcp::TcpStream::local_addr
    _ZN3std3net3tcp9TcpStream10local_addr17h3aa2fcef9122cb56E @ 493
;   std::net::tcp::TcpStream::take_error
    _ZN3std3net3tcp9TcpStream10take_error17h396eb65d4337f064E @ 494
;   std::net::tcp::TcpStream::set_nodelay
    _ZN3std3net3tcp9TcpStream11set_nodelay17h723788f8370b84c8E @ 495
;   std::net::tcp::TcpStream::read_timeout
    _ZN3std3net3tcp9TcpStream12read_timeout17h0a9d0848d22f5f28E @ 496
;   std::net::tcp::TcpStream::write_timeout
    _ZN3std3net3tcp9TcpStream13write_timeout17h8b4089f1c3def2acE @ 497
;   std::net::tcp::TcpStream::set_nonblocking
    _ZN3std3net3tcp9TcpStream15set_nonblocking17h487b0a15d6484476E @ 498
;   std::net::tcp::TcpStream::set_read_timeout
    _ZN3std3net3tcp9TcpStream16set_read_timeout17h22ccbc74f97a1ef2E @ 499
;   std::net::tcp::TcpStream::set_write_timeout
    _ZN3std3net3tcp9TcpStream17set_write_timeout17hea6584b308e1b082E @ 500
;   std::net::tcp::TcpStream::ttl
    _ZN3std3net3tcp9TcpStream3ttl17h59a57db7b8b9129eE @ 501
;   std::net::tcp::TcpStream::peek
    _ZN3std3net3tcp9TcpStream4peek17h973e38a8e51b129fE @ 502
;   std::net::tcp::TcpStream::nodelay
    _ZN3std3net3tcp9TcpStream7nodelay17h682af518fa2c51b3E @ 503
;   std::net::tcp::TcpStream::set_ttl
    _ZN3std3net3tcp9TcpStream7set_ttl17h5db2fa55f5987799E @ 504
;   std::net::tcp::TcpStream::shutdown
    _ZN3std3net3tcp9TcpStream8shutdown17hbb06d3ee521815a9E @ 505
;   std::net::tcp::TcpStream::peer_addr
    _ZN3std3net3tcp9TcpStream9peer_addr17hbcd0df50c1b2b34dE @ 506
;   std::net::tcp::TcpStream::try_clone
    _ZN3std3net3tcp9TcpStream9try_clone17h8c21f1eff7abf3bfE @ 507
;   std::net::udp::UdpSocket::local_addr
    _ZN3std3net3udp9UdpSocket10local_addr17h49951f9deacdb070E @ 508
;   std::net::udp::UdpSocket::take_error
    _ZN3std3net3udp9UdpSocket10take_error17hde6f87df8b9c4156E @ 509
;   std::net::udp::UdpSocket::read_timeout
    _ZN3std3net3udp9UdpSocket12read_timeout17ha072685db3de1a8aE @ 510
;   std::net::udp::UdpSocket::set_broadcast
    _ZN3std3net3udp9UdpSocket13set_broadcast17hf7690052c14fec49E @ 511
;   std::net::udp::UdpSocket::write_timeout
    _ZN3std3net3udp9UdpSocket13write_timeout17h2b38ac5da4dfee78E @ 512
;   std::net::udp::UdpSocket::set_nonblocking
    _ZN3std3net3udp9UdpSocket15set_nonblocking17haf82e62b0d486a90E @ 513
;   std::net::udp::UdpSocket::multicast_ttl_v4
    _ZN3std3net3udp9UdpSocket16multicast_ttl_v417he35de690535dd3a5E @ 514
;   std::net::udp::UdpSocket::set_read_timeout
    _ZN3std3net3udp9UdpSocket16set_read_timeout17h1ea2cf02c2c8feeeE @ 515
;   std::net::udp::UdpSocket::join_multicast_v4
    _ZN3std3net3udp9UdpSocket17join_multicast_v417h2e2e23e1450165ebE @ 516
;   std::net::udp::UdpSocket::join_multicast_v6
    _ZN3std3net3udp9UdpSocket17join_multicast_v617hc73dc616985c7b11E @ 517
;   std::net::udp::UdpSocket::multicast_loop_v4
    _ZN3std3net3udp9UdpSocket17multicast_loop_v417h89da037001430252E @ 518
;   std::net::udp::UdpSocket::multicast_loop_v6
    _ZN3std3net3udp9UdpSocket17multicast_loop_v617he1de1350c5775a0aE @ 519
;   std::net::udp::UdpSocket::set_write_timeout
    _ZN3std3net3udp9UdpSocket17set_write_timeout17h0abfcd2059178801E @ 520
;   std::net::udp::UdpSocket::leave_multicast_v4
    _ZN3std3net3udp9UdpSocket18leave_multicast_v417he525df77d692eaeaE @ 521
;   std::net::udp::UdpSocket::leave_multicast_v6
    _ZN3std3net3udp9UdpSocket18leave_multicast_v617h70b17488cc393dabE @ 522
;   std::net::udp::UdpSocket::set_multicast_ttl_v4
    _ZN3std3net3udp9UdpSocket20set_multicast_ttl_v417h05de6356009e89d3E @ 523
;   std::net::udp::UdpSocket::set_multicast_loop_v4
    _ZN3std3net3udp9UdpSocket21set_multicast_loop_v417h430a9a766313b225E @ 524
;   std::net::udp::UdpSocket::set_multicast_loop_v6
    _ZN3std3net3udp9UdpSocket21set_multicast_loop_v617h92e34e29ea4dc614E @ 525
;   std::net::udp::UdpSocket::ttl
    _ZN3std3net3udp9UdpSocket3ttl17he95587aff9034071E @ 526
;   std::net::udp::UdpSocket::peek
    _ZN3std3net3udp9UdpSocket4peek17h5bace91f25c223c4E @ 527
;   std::net::udp::UdpSocket::recv
    _ZN3std3net3udp9UdpSocket4recv17hbd8b200759485b75E @ 528
;   std::net::udp::UdpSocket::send
    _ZN3std3net3udp9UdpSocket4send17h57ef62e4bf1a96a6E @ 529
;   std::net::udp::UdpSocket::set_ttl
    _ZN3std3net3udp9UdpSocket7set_ttl17hce13b27e46c2578dE @ 530
;   std::net::udp::UdpSocket::broadcast
    _ZN3std3net3udp9UdpSocket9broadcast17h1c8bd1b9b86d6119E @ 531
;   std::net::udp::UdpSocket::peek_from
    _ZN3std3net3udp9UdpSocket9peek_from17h311955d60ab09044E @ 532
;   std::net::udp::UdpSocket::recv_from
    _ZN3std3net3udp9UdpSocket9recv_from17hce4fe45ea0a5a9d5E @ 533
;   std::net::udp::UdpSocket::try_clone
    _ZN3std3net3udp9UdpSocket9try_clone17h9ae7b115c8256fe9E @ 534
;   std::net::addr::SocketAddr::ip
    _ZN3std3net4addr10SocketAddr2ip17hefa4a52d30ffcf5aE @ 535
;   std::net::addr::SocketAddr::new
    _ZN3std3net4addr10SocketAddr3new17h5632c633a58fe118E @ 536
;   std::net::addr::SocketAddr::port
    _ZN3std3net4addr10SocketAddr4port17h8c9f59146dd78460E @ 537
;   std::net::addr::SocketAddr::set_ip
    _ZN3std3net4addr10SocketAddr6set_ip17h30faf13cb49d2a72E @ 538
;   std::net::addr::SocketAddr::is_ipv4
    _ZN3std3net4addr10SocketAddr7is_ipv417hc414cb41bd62cd1dE @ 539
;   std::net::addr::SocketAddr::is_ipv6
    _ZN3std3net4addr10SocketAddr7is_ipv617h4399fdb761167c67E @ 540
;   std::net::addr::SocketAddr::set_port
    _ZN3std3net4addr10SocketAddr8set_port17h7c4e3b9fb4c46f12E @ 541
;   std::net::addr::SocketAddrV4::ip
    _ZN3std3net4addr12SocketAddrV42ip17h30eaf7dfe427342cE @ 542
;   std::net::addr::SocketAddrV4::new
    _ZN3std3net4addr12SocketAddrV43new17h7a33867415e540adE @ 543
;   std::net::addr::SocketAddrV4::port
    _ZN3std3net4addr12SocketAddrV44port17h880fa73bae64e67fE @ 544
;   std::net::addr::SocketAddrV4::set_ip
    _ZN3std3net4addr12SocketAddrV46set_ip17h87f54f63ca68ebfdE @ 545
;   std::net::addr::SocketAddrV4::set_port
    _ZN3std3net4addr12SocketAddrV48set_port17h19a31fc00465e3c8E @ 546
;   std::net::addr::SocketAddrV6::set_flowinfo
    _ZN3std3net4addr12SocketAddrV612set_flowinfo17h73f4603988a35247E @ 547
;   std::net::addr::SocketAddrV6::set_scope_id
    _ZN3std3net4addr12SocketAddrV612set_scope_id17he02242398d3530b2E @ 548
;   std::net::addr::SocketAddrV6::ip
    _ZN3std3net4addr12SocketAddrV62ip17h9db5071d77ec6404E @ 549
;   std::net::addr::SocketAddrV6::new
    _ZN3std3net4addr12SocketAddrV63new17h82e9b202fd6a8f63E @ 550
;   std::net::addr::SocketAddrV6::port
    _ZN3std3net4addr12SocketAddrV64port17h8910565a1504489eE @ 551
;   std::net::addr::SocketAddrV6::set_ip
    _ZN3std3net4addr12SocketAddrV66set_ip17h8cc58f77e1ae1318E @ 552
;   std::net::addr::SocketAddrV6::flowinfo
    _ZN3std3net4addr12SocketAddrV68flowinfo17h1fbeb80e6f26c891E @ 553
;   std::net::addr::SocketAddrV6::scope_id
    _ZN3std3net4addr12SocketAddrV68scope_id17he9c507a0f8d989b6E @ 554
;   std::net::addr::SocketAddrV6::set_port
    _ZN3std3net4addr12SocketAddrV68set_port17hb812865458124ba2E @ 555
;   std::net::parser::<impl core::str::FromStr for std::net::ip::IpAddr>::from_str
    "_ZN3std3net6parser69_$LT$impl$u20$core..str..FromStr$u20$for$u20$std..net..ip..IpAddr$GT$8from_str17h091f9f88c8fd2044E" @ 556
;   std::net::parser::<impl core::str::FromStr for std::net::ip::Ipv4Addr>::from_str
    "_ZN3std3net6parser71_$LT$impl$u20$core..str..FromStr$u20$for$u20$std..net..ip..Ipv4Addr$GT$8from_str17h34da46f48d32e274E" @ 557
;   std::net::parser::<impl core::str::FromStr for std::net::ip::Ipv6Addr>::from_str
    "_ZN3std3net6parser71_$LT$impl$u20$core..str..FromStr$u20$for$u20$std..net..ip..Ipv6Addr$GT$8from_str17hf4799ef61651d039E" @ 558
;   std::net::parser::<impl core::str::FromStr for std::net::addr::SocketAddr>::from_str
    "_ZN3std3net6parser75_$LT$impl$u20$core..str..FromStr$u20$for$u20$std..net..addr..SocketAddr$GT$8from_str17hd20707bdb8e2d80eE" @ 559
;   std::net::parser::<impl core::str::FromStr for std::net::addr::SocketAddrV4>::from_str
    "_ZN3std3net6parser77_$LT$impl$u20$core..str..FromStr$u20$for$u20$std..net..addr..SocketAddrV4$GT$8from_str17he612f1831d7eacc7E" @ 560
;   std::net::parser::<impl core::str::FromStr for std::net::addr::SocketAddrV6>::from_str
    "_ZN3std3net6parser77_$LT$impl$u20$core..str..FromStr$u20$for$u20$std..net..addr..SocketAddrV6$GT$8from_str17h0526aabb610fb171E" @ 561
;   std::sys::imp::thread_local::p_thread_callback
    _ZN3std3sys3imp12thread_local17p_thread_callback17h10124bca925a6deaE @ 562 DATA
;   std::sys::imp::thread_local::set::_FILE_LINE
    _ZN3std3sys3imp12thread_local3set10_FILE_LINE17ha40a99c8b8f4ae69E @ 563 DATA
;   std::sys::imp::c::AcquireSRWLockShared
    _ZN3std3sys3imp1c20AcquireSRWLockShared17h2baf11036512a4e1E @ 564
;   std::sys::imp::c::ReleaseSRWLockShared
    _ZN3std3sys3imp1c20ReleaseSRWLockShared17h4fe01ac2300e8e08E @ 565
;   std::sys::imp::c::AcquireSRWLockExclusive
    _ZN3std3sys3imp1c23AcquireSRWLockExclusive17h27161995f9f72bd3E @ 566
;   std::sys::imp::c::ReleaseSRWLockExclusive
    _ZN3std3sys3imp1c23ReleaseSRWLockExclusive17hcf7da5130db9756fE @ 567
;   std::sys::imp::c::TryAcquireSRWLockShared
    _ZN3std3sys3imp1c23TryAcquireSRWLockShared17h84e5edb748016c07E @ 568
;   std::sys::imp::c::SleepConditionVariableSRW
    _ZN3std3sys3imp1c25SleepConditionVariableSRW17ha60410e37dc8dd74E @ 569
;   std::sys::imp::c::TryAcquireSRWLockExclusive
    _ZN3std3sys3imp1c26TryAcquireSRWLockExclusive17h2216d121bd98a95fE @ 570
;   std::sys::imp::fs::canonicalize
    _ZN3std3sys3imp2fs12canonicalize17hd060ba328b9ec71eE @ 571
;   std::sys::imp::fs::symlink_inner
    _ZN3std3sys3imp2fs13symlink_inner17hbd36ae9fd09ff248E @ 572
;   std::sys::imp::fs::remove_dir_all
    _ZN3std3sys3imp2fs14remove_dir_all17h575521a229832fd7E @ 573
;   std::sys::imp::fs::copy
    _ZN3std3sys3imp2fs4copy17h4cf7020fdc7a101bE @ 574
;   std::sys::imp::fs::link
    _ZN3std3sys3imp2fs4link17hffda4fd771181cefE @ 575
;   std::sys::imp::fs::stat
    _ZN3std3sys3imp2fs4stat17hb93ecf52cf5c09daE @ 576
;   std::sys::imp::fs::lstat
    _ZN3std3sys3imp2fs5lstat17h2d44fcb6b0fa902fE @ 577
;   std::sys::imp::fs::rmdir
    _ZN3std3sys3imp2fs5rmdir17h487c761c338143d7E @ 578
;   std::sys::imp::fs::rename
    _ZN3std3sys3imp2fs6rename17hcea949c8392ef4aeE @ 579
;   std::sys::imp::fs::unlink
    _ZN3std3sys3imp2fs6unlink17h0343ae6b9e366638E @ 580
;   std::sys::imp::fs::readdir
    _ZN3std3sys3imp2fs7readdir17h2ef922ab71aba061E @ 581
;   std::sys::imp::fs::symlink
    _ZN3std3sys3imp2fs7symlink17hbadff5df6958215cE @ 582
;   std::sys::imp::fs::readlink
    _ZN3std3sys3imp2fs8readlink17hffac28677f1a9d2dE @ 583
;   std::sys::imp::fs::set_perm
    _ZN3std3sys3imp2fs8set_perm17h04f553dbef909a62E @ 584
;   std::sys::imp::os::split_paths
    _ZN3std3sys3imp2os11split_paths17h85c8686217d441c9E @ 585
;   std::sys::imp::os::chdir
    _ZN3std3sys3imp2os5chdir17h168433d339e0440cE @ 586
;   std::sys::imp::ext::process::<impl std::sys::imp::ext::io::AsRawHandle for std::process::Child>::as_raw_handle
    "_ZN3std3sys3imp3ext7process85_$LT$impl$u20$std..sys..imp..ext..io..AsRawHandle$u20$for$u20$std..process..Child$GT$13as_raw_handle17h9356953bd2aefa90E" @ 587
;   std::sys::imp::ext::process::<impl std::sys::imp::ext::io::FromRawHandle for std::process::Stdio>::from_raw_handle
    "_ZN3std3sys3imp3ext7process87_$LT$impl$u20$std..sys..imp..ext..io..FromRawHandle$u20$for$u20$std..process..Stdio$GT$15from_raw_handle17he0c206e5f1072199E" @ 588
;   std::sys::imp::ext::process::<impl std::sys::imp::ext::io::IntoRawHandle for std::process::Child>::into_raw_handle
    "_ZN3std3sys3imp3ext7process87_$LT$impl$u20$std..sys..imp..ext..io..IntoRawHandle$u20$for$u20$std..process..Child$GT$15into_raw_handle17he43279d38d37b163E" @ 589
;   std::sys::imp::ext::process::<impl std::sys::imp::ext::io::AsRawHandle for std::process::ChildStdin>::as_raw_handle
    "_ZN3std3sys3imp3ext7process90_$LT$impl$u20$std..sys..imp..ext..io..AsRawHandle$u20$for$u20$std..process..ChildStdin$GT$13as_raw_handle17h21cceabd4177eafbE" @ 590
;   std::sys::imp::ext::process::<impl std::sys::imp::ext::io::AsRawHandle for std::process::ChildStderr>::as_raw_handle
    "_ZN3std3sys3imp3ext7process91_$LT$impl$u20$std..sys..imp..ext..io..AsRawHandle$u20$for$u20$std..process..ChildStderr$GT$13as_raw_handle17h00919f3a36b50fd8E" @ 591
;   std::sys::imp::ext::process::<impl std::sys::imp::ext::io::AsRawHandle for std::process::ChildStdout>::as_raw_handle
    "_ZN3std3sys3imp3ext7process91_$LT$impl$u20$std..sys..imp..ext..io..AsRawHandle$u20$for$u20$std..process..ChildStdout$GT$13as_raw_handle17h2efbd8a68c4faf4fE" @ 592
;   std::sys::imp::ext::process::<impl std::sys::imp::ext::io::IntoRawHandle for std::process::ChildStdin>::into_raw_handle
    "_ZN3std3sys3imp3ext7process92_$LT$impl$u20$std..sys..imp..ext..io..IntoRawHandle$u20$for$u20$std..process..ChildStdin$GT$15into_raw_handle17h682724505449dc89E" @ 593
;   std::sys::imp::ext::process::<impl std::sys::imp::ext::io::IntoRawHandle for std::process::ChildStderr>::into_raw_handle
    "_ZN3std3sys3imp3ext7process93_$LT$impl$u20$std..sys..imp..ext..io..IntoRawHandle$u20$for$u20$std..process..ChildStderr$GT$15into_raw_handle17h7771a59cec0f0635E" @ 594
;   std::sys::imp::ext::process::<impl std::sys::imp::ext::io::IntoRawHandle for std::process::ChildStdout>::into_raw_handle
    "_ZN3std3sys3imp3ext7process93_$LT$impl$u20$std..sys..imp..ext..io..IntoRawHandle$u20$for$u20$std..process..ChildStdout$GT$15into_raw_handle17h5635e8c961783ec7E" @ 595
;   std::sys::imp::net::Socket::take_error
    _ZN3std3sys3imp3net6Socket10take_error17hf580fc79a239e87cE @ 596
;   std::sys::imp::net::Socket::read_to_end
    _ZN3std3sys3imp3net6Socket11read_to_end17h64d9e19c48eb37ffE @ 597
;   std::sys::imp::net::Socket::set_nodelay
    _ZN3std3sys3imp3net6Socket11set_nodelay17h1e6cb85c4d458ff6E @ 598
;   std::sys::imp::net::Socket::set_timeout
    _ZN3std3sys3imp3net6Socket11set_timeout17h9e8c6bc47a30c130E @ 599
;   std::sys::imp::net::Socket::set_nonblocking
    _ZN3std3sys3imp3net6Socket15set_nonblocking17h7936b7ee11e67c1dE @ 600
;   std::sys::imp::net::Socket::new
    _ZN3std3sys3imp3net6Socket3new17h421daf70b9987ff1E @ 601
;   std::sys::imp::net::Socket::peek
    _ZN3std3sys3imp3net6Socket4peek17h9c5e5b144efd7b98E @ 602
;   std::sys::imp::net::Socket::read
    _ZN3std3sys3imp3net6Socket4read17hc710f7691f545b27E @ 603
;   std::sys::imp::net::Socket::accept
    _ZN3std3sys3imp3net6Socket6accept17hdcdc90469c348859E @ 604
;   std::sys::imp::net::Socket::nodelay
    _ZN3std3sys3imp3net6Socket7nodelay17h6c87aaa014a92fefE @ 605
;   std::sys::imp::net::Socket::timeout
    _ZN3std3sys3imp3net6Socket7timeout17h04b85b10e6b440cdE @ 606
;   std::sys::imp::net::Socket::shutdown
    _ZN3std3sys3imp3net6Socket8shutdown17h8c88e49a1adbbd9dE @ 607
;   std::sys::imp::net::Socket::duplicate
    _ZN3std3sys3imp3net6Socket9duplicate17h151f707fadf445edE @ 608
;   std::sys::imp::net::Socket::peek_from
    _ZN3std3sys3imp3net6Socket9peek_from17h8a44adff1931ed74E @ 609
;   std::sys::imp::net::Socket::recv_from
    _ZN3std3sys3imp3net6Socket9recv_from17hfd357ebe470b97d5E @ 610
;   std::sys::imp::mutex::ReentrantMutex::unlock
    _ZN3std3sys3imp5mutex14ReentrantMutex6unlock17h68bf63ec8a6b6356E @ 611
;   std::sys::imp::mutex::ReentrantMutex::destroy
    _ZN3std3sys3imp5mutex14ReentrantMutex7destroy17h3cc427b3c7c627f2E @ 612
;   std::sys::imp::mutex::raw::_FILE_LINE
    _ZN3std3sys3imp5mutex3raw10_FILE_LINE17h58376fad670b9f87E @ 613 DATA
;   std::sys::imp::mutex::Mutex::lock
    _ZN3std3sys3imp5mutex5Mutex4lock17hdc3e9f8c95bedaf3E @ 614
;   std::sys::imp::mutex::Mutex::unlock
    _ZN3std3sys3imp5mutex5Mutex6unlock17h462bf48af868b0a6E @ 615
;   std::sys::imp::mutex::Mutex::destroy
    _ZN3std3sys3imp5mutex5Mutex7destroy17ha961d9c850112941E @ 616
;   std::sys::imp::mutex::Mutex::try_lock
    _ZN3std3sys3imp5mutex5Mutex8try_lock17h49ad9a31504cc7d6E @ 617
;   std::sys::imp::stdio::Stdin::read_to_end
    _ZN3std3sys3imp5stdio5Stdin11read_to_end17h7c572808a8334091E @ 618
;   std::sys::imp::stdio::Stdin::new
    _ZN3std3sys3imp5stdio5Stdin3new17h5f1b6af41c2b1778E @ 619
;   std::sys::imp::stdio::Stdin::read
    _ZN3std3sys3imp5stdio5Stdin4read17h967fbc9735ae9727E @ 620
;   std::sys::imp::handle::Handle::new
    _ZN3std3sys3imp6handle6Handle3new17hb32b3eed0997df07E @ 621
;   std::sys::imp::handle::Handle::into_raw
    _ZN3std3sys3imp6handle6Handle8into_raw17h919e254ece689757E @ 622
;   std::sys::imp::handle::Handle::new_event
    _ZN3std3sys3imp6handle6Handle9new_event17h989b88905241090dE @ 623
;   std::sys::imp::handle::RawHandle::read_to_end
    _ZN3std3sys3imp6handle9RawHandle11read_to_end17hb5b1f2277617a754E @ 624
;   std::sys::imp::handle::RawHandle::read_overlapped
    _ZN3std3sys3imp6handle9RawHandle15read_overlapped17hb92c3ecc832404d1E @ 625
;   std::sys::imp::handle::RawHandle::overlapped_result
    _ZN3std3sys3imp6handle9RawHandle17overlapped_result17hd7e1f7de46588ab1E @ 626
;   std::sys::imp::handle::RawHandle::new
    _ZN3std3sys3imp6handle9RawHandle3new17h91734ffd2a6f0215E @ 627
;   std::sys::imp::handle::RawHandle::raw
    _ZN3std3sys3imp6handle9RawHandle3raw17h81834b38ac4f6869E @ 628
;   std::sys::imp::handle::RawHandle::read
    _ZN3std3sys3imp6handle9RawHandle4read17h039640cb0b370063E @ 629
;   std::sys::imp::handle::RawHandle::write
    _ZN3std3sys3imp6handle9RawHandle5write17ha20114b44e3de4a9E @ 630
;   std::sys::imp::handle::RawHandle::read_at
    _ZN3std3sys3imp6handle9RawHandle7read_at17h54b79d4c9af943e1E @ 631
;   std::sys::imp::handle::RawHandle::write_at
    _ZN3std3sys3imp6handle9RawHandle8write_at17h5deae611790faf92E @ 632
;   std::sys::imp::handle::RawHandle::cancel_io
    _ZN3std3sys3imp6handle9RawHandle9cancel_io17h5827cfb9cc7e6e27E @ 633
;   std::sys::imp::handle::RawHandle::duplicate
    _ZN3std3sys3imp6handle9RawHandle9duplicate17h8bf37602e3234ed8E @ 634
;   std::sys::imp::os_str::Buf::push_slice
    _ZN3std3sys3imp6os_str3Buf10push_slice17hd20d4c40e83ecea8E @ 635
;   std::sys::imp::os_str::Buf::as_slice
    _ZN3std3sys3imp6os_str3Buf8as_slice17h05492a11ea6db220E @ 636
;   std::sys::imp::thread::guard::current
    _ZN3std3sys3imp6thread5guard7current17hc3721917297fc373E @ 637
;   std::sys::imp::thread::Thread::into_handle
    _ZN3std3sys3imp6thread6Thread11into_handle17hc1bccd50341f2e94E @ 638
;   std::sys::imp::thread::Thread::new
    _ZN3std3sys3imp6thread6Thread3new17h51ea7d6ce4bc980fE @ 639
;   std::sys::imp::thread::Thread::join
    _ZN3std3sys3imp6thread6Thread4join17hff86b90add01122dE @ 640
;   std::sys::imp::thread::Thread::handle
    _ZN3std3sys3imp6thread6Thread6handle17h823c22856e7067dcE @ 641
;   std::sys::imp::thread::Thread::set_name
    _ZN3std3sys3imp6thread6Thread8set_name17h818e4152f38b296dE @ 642
;   std::sys::imp::condvar::Condvar::wait_timeout
    _ZN3std3sys3imp7condvar7Condvar12wait_timeout17h7c1080b2c056fe31E @ 643
;   std::sys::imp::condvar::Condvar::wait::_FILE_LINE
    _ZN3std3sys3imp7condvar7Condvar4wait10_FILE_LINE17hd758454395d6007bE @ 644 DATA
;   std::sys::imp::process::Command::env_remove
    _ZN3std3sys3imp7process7Command10env_remove17hbd3d350b37836db2E @ 645
;   std::sys::imp::process::Command::arg
    _ZN3std3sys3imp7process7Command3arg17h2f85ec9e1a75e0d7E @ 646
;   std::sys::imp::process::Command::cwd
    _ZN3std3sys3imp7process7Command3cwd17he21bb676e761ad58E @ 647
;   std::sys::imp::process::Command::env
    _ZN3std3sys3imp7process7Command3env17ha2c3c56b9dd588d6E @ 648
;   std::sys::imp::process::Command::new
    _ZN3std3sys3imp7process7Command3new17ha15bb288a9b47c2aE @ 649
;   std::path::<impl core::convert::AsRef<std::path::Path> for std::ffi::os_str::OsString>::as_ref
    "_ZN3std4path100_$LT$impl$u20$core..convert..AsRef$LT$std..path..Path$GT$$u20$for$u20$std..ffi..os_str..OsString$GT$6as_ref17ha53b5b7c72178c95E" @ 650
;   std::path::<impl core::convert::AsRef<std::path::Path> for collections::string::String>::as_ref
    "_ZN3std4path101_$LT$impl$u20$core..convert..AsRef$LT$std..path..Path$GT$$u20$for$u20$collections..string..String$GT$6as_ref17hcd0606ffb1a81afeE" @ 651
;   std::path::<impl core::convert::From<std::path::PathBuf> for std::ffi::os_str::OsString>::from
    "_ZN3std4path102_$LT$impl$u20$core..convert..From$LT$std..path..PathBuf$GT$$u20$for$u20$std..ffi..os_str..OsString$GT$4from17hd5265a9997fa032fE" @ 652
;   std::path::Components::as_path
    _ZN3std4path10Components7as_path17h54cb4576914d7e3aE @ 653
;   std::path::<impl core::convert::From<&'a std::path::Path> for alloc::boxed::Box<std::path::Path>>::from
    "_ZN3std4path128_$LT$impl$u20$core..convert..From$LT$$RF$$u27$a$u20$std..path..Path$GT$$u20$for$u20$alloc..boxed..Box$LT$std..path..Path$GT$$GT$4from17he3e17a43f1a65b52E" @ 654
;   std::path::is_separator
    _ZN3std4path12is_separator17h6e1000822a3713fdE @ 655
;   std::path::<impl core::convert::AsRef<std::path::Path> for collections::borrow::Cow<'a, std::ffi::os_str::OsStr>>::as_ref
    "_ZN3std4path143_$LT$impl$u20$core..convert..AsRef$LT$std..path..Path$GT$$u20$for$u20$collections..borrow..Cow$LT$$u27$a$C$$u20$std..ffi..os_str..OsStr$GT$$GT$6as_ref17h5768bae0994427dcE" @ 656
;   std::path::PrefixComponent::kind
    _ZN3std4path15PrefixComponent4kind17ha4f23c0dc4ac3a20E @ 657
;   std::path::PrefixComponent::as_os_str
    _ZN3std4path15PrefixComponent9as_os_str17hed9bdc529fe75a43E @ 658
;   std::path::Iter::as_path
    _ZN3std4path4Iter7as_path17hd78262ece01a2001E @ 659
;   std::path::Path::_ends_with
    _ZN3std4path4Path10_ends_with17h143f8bfc73ef5726E @ 660
;   std::path::Path::components
    _ZN3std4path4Path10components17h4682b3f36d649a21E @ 661
;   std::path::Path::is_absolute
    _ZN3std4path4Path11is_absolute17h93b4356e3649c8d0E @ 662
;   std::path::Path::is_relative
    _ZN3std4path4Path11is_relative17hdbdcb89845f7f58aE @ 663
;   std::path::Path::to_path_buf
    _ZN3std4path4Path11to_path_buf17h41d155106e1749a8E @ 664
;   std::path::Path::_starts_with
    _ZN3std4path4Path12_starts_with17h82160ad9e4af9831E @ 665
;   std::path::Path::canonicalize
    _ZN3std4path4Path12canonicalize17h012137ea0980d743E @ 666
;   std::path::Path::_strip_prefix
    _ZN3std4path4Path13_strip_prefix17hc1f6acebf8334154E @ 667
;   std::path::Path::into_path_buf
    _ZN3std4path4Path13into_path_buf17hdcd0e89766b11562E @ 668
;   std::path::Path::_with_extension
    _ZN3std4path4Path15_with_extension17h64075f82c835c0afE @ 669
;   std::path::Path::_with_file_name
    _ZN3std4path4Path15_with_file_name17h92173eca355d83ccE @ 670
;   std::path::Path::to_string_lossy
    _ZN3std4path4Path15to_string_lossy17h6816c4c01fd9d7abE @ 671
;   std::path::Path::symlink_metadata
    _ZN3std4path4Path16symlink_metadata17hb5fd3201d442ab0dE @ 672
;   std::path::Path::iter
    _ZN3std4path4Path4iter17h901d383579562cbcE @ 673
;   std::path::Path::_join
    _ZN3std4path4Path5_join17h1da16afa20909d3dE @ 674
;   std::path::Path::exists
    _ZN3std4path4Path6exists17h2ffa919e045a9081E @ 675
;   std::path::Path::is_dir
    _ZN3std4path4Path6is_dir17hba4a0589fa69f928E @ 676
;   std::path::Path::parent
    _ZN3std4path4Path6parent17hc9bc85b6f539a681E @ 677
;   std::path::Path::to_str
    _ZN3std4path4Path6to_str17h0e5f8c57c6811ddcE @ 678
;   std::path::Path::display
    _ZN3std4path4Path7display17hce5307c824f11054E @ 679
;   std::path::Path::is_file
    _ZN3std4path4Path7is_file17hb7485b2c20b9de63E @ 680
;   std::path::Path::has_root
    _ZN3std4path4Path8has_root17hf0c84cba1261bae4E @ 681
;   std::path::Path::metadata
    _ZN3std4path4Path8metadata17hfc2d12c35366b195E @ 682
;   std::path::Path::read_dir
    _ZN3std4path4Path8read_dir17h4878b16703f2eebaE @ 683
;   std::path::Path::as_os_str
    _ZN3std4path4Path9as_os_str17h7bf50bbe04e29646E @ 684
;   std::path::Path::extension
    _ZN3std4path4Path9extension17h48e637f9d05b8bccE @ 685
;   std::path::Path::file_name
    _ZN3std4path4Path9file_name17h887dbfa24412a5b5E @ 686
;   std::path::Path::file_stem
    _ZN3std4path4Path9file_stem17hdabb6079c309d762E @ 687
;   std::path::Path::read_link
    _ZN3std4path4Path9read_link17hf810669794a0a169E @ 688
;   std::path::<impl core::convert::AsRef<std::path::Path> for str>::as_ref
    "_ZN3std4path77_$LT$impl$u20$core..convert..AsRef$LT$std..path..Path$GT$$u20$for$u20$str$GT$6as_ref17h6e8390f4a9e14511E" @ 689
;   std::path::PathBuf::_set_extension
    _ZN3std4path7PathBuf14_set_extension17h3e0716f2d4dd4742E @ 690
;   std::path::PathBuf::_set_file_name
    _ZN3std4path7PathBuf14_set_file_name17h1f8cf00d3340220dE @ 691
;   std::path::PathBuf::into_os_string
    _ZN3std4path7PathBuf14into_os_string17h3df717c8e62832f1E @ 692
;   std::path::PathBuf::into_boxed_path
    _ZN3std4path7PathBuf15into_boxed_path17h34a55f36b01fc169E @ 693
;   std::path::PathBuf::new
    _ZN3std4path7PathBuf3new17hc1dec31fef6ba0f3E @ 694
;   std::path::PathBuf::pop
    _ZN3std4path7PathBuf3pop17h086c5e82004d1416E @ 695
;   std::path::PathBuf::_push
    _ZN3std4path7PathBuf5_push17h6646e9e79ebd1b20E @ 696
;   std::path::PathBuf::as_path
    _ZN3std4path7PathBuf7as_path17h96e9e092f050d864E @ 697
;   std::path::<impl core::convert::AsRef<std::path::Path> for std::ffi::os_str::OsStr>::as_ref
    "_ZN3std4path97_$LT$impl$u20$core..convert..AsRef$LT$std..path..Path$GT$$u20$for$u20$std..ffi..os_str..OsStr$GT$6as_ref17hc5cf44fca612b4d7E" @ 698
;   std::path::Component::as_os_str
    _ZN3std4path9Component9as_os_str17h27e4c2216d53af14E @ 699
;   std::rand::thread_rng
    _ZN3std4rand10thread_rng17h68374b06e6a3c229E @ 700
;   std::sync::mpsc::sync::wait_timeout_receiver::_FILE_LINE
    _ZN3std4sync4mpsc4sync21wait_timeout_receiver10_FILE_LINE17hf016ee5cf9c4874dE @ 701 DATA
;   std::sync::mpsc::sync::wait::_FILE_LINE
    _ZN3std4sync4mpsc4sync4wait10_FILE_LINE17hde6d81e25b8d4b06E @ 702 DATA
;   std::sync::mpsc::sync::Queue::dequeue
    _ZN3std4sync4mpsc4sync5Queue7dequeue17ha84381cb26f9fa91E @ 703
;   std::sync::mpsc::sync::Queue::enqueue
    _ZN3std4sync4mpsc4sync5Queue7enqueue17h75984cc040185bc7E @ 704
;   std::sync::mpsc::select::Select::new
    _ZN3std4sync4mpsc6select6Select3new17hc90af34d412653deE @ 705
;   std::sync::mpsc::select::Select::wait
    _ZN3std4sync4mpsc6select6Select4wait17ha342cb4e912ca46dE @ 706
;   std::sync::mpsc::blocking::SignalToken::signal
    _ZN3std4sync4mpsc8blocking11SignalToken6signal17h8b8d54a9e910e1caE @ 707
;   std::sync::mpsc::blocking::tokens
    _ZN3std4sync4mpsc8blocking6tokens17h2bf8021ee386b981E @ 708
;   std::sync::mpsc::blocking::WaitToken::wait_max_until
    _ZN3std4sync4mpsc8blocking9WaitToken14wait_max_until17h1627a71ae1a90b9fE @ 709
;   std::sync::mpsc::blocking::WaitToken::wait
    _ZN3std4sync4mpsc8blocking9WaitToken4wait17h279bb9c1620a9668E @ 710
;   std::sync::once::Once::call_inner
    _ZN3std4sync4once4Once10call_inner17had45c4cadab03822E @ 711
;   std::sync::once::Once::new
    _ZN3std4sync4once4Once3new17hb5ed36bc9ddcf45fE @ 712
;   std::sync::once::OnceState::poisoned
    _ZN3std4sync4once9OnceState8poisoned17h03e3c087e0713ce0E @ 713
;   std::sync::barrier::BarrierWaitResult::is_leader
    _ZN3std4sync7barrier17BarrierWaitResult9is_leader17h71e1d2fdd6b790c0E @ 714
;   std::sync::barrier::Barrier::new
    _ZN3std4sync7barrier7Barrier3new17h449db01283efb96eE @ 715
;   std::sync::barrier::Barrier::wait
    _ZN3std4sync7barrier7Barrier4wait17hb7aec728d00e9c97E @ 716
;   std::sync::condvar::WaitTimeoutResult::timed_out
    _ZN3std4sync7condvar17WaitTimeoutResult9timed_out17hb0402556c00b80d6E @ 717
;   std::sync::condvar::Condvar::notify_all
    _ZN3std4sync7condvar7Condvar10notify_all17h060497c5ae329cb6E @ 718
;   std::sync::condvar::Condvar::notify_one
    _ZN3std4sync7condvar7Condvar10notify_one17h82f7e7a9007e4ecbE @ 719
;   std::sync::condvar::Condvar::new
    _ZN3std4sync7condvar7Condvar3new17hc4af53fc532aadcbE @ 720
;   std::sync::condvar::Condvar::verify
    _ZN3std4sync7condvar7Condvar6verify17h37ad5849b8feec05E @ 721
;   std::time::SystemTime::duration_since
    _ZN3std4time10SystemTime14duration_since17h890142887d64a028E @ 722
;   std::time::SystemTime::now
    _ZN3std4time10SystemTime3now17hc5e46adccacf660eE @ 723
;   std::time::SystemTime::elapsed
    _ZN3std4time10SystemTime7elapsed17hc48e841022f19cebE @ 724
;   std::time::SystemTimeError::duration
    _ZN3std4time15SystemTimeError8duration17hb911529f089e613fE @ 725
;   std::time::Instant::duration_since
    _ZN3std4time7Instant14duration_since17hf8ae006a81642770E @ 726
;   std::time::Instant::now
    _ZN3std4time7Instant3now17hba9e1599647dca8cE @ 727
;   std::time::Instant::elapsed
    _ZN3std4time7Instant7elapsed17ha2dbd8be2876cc80E @ 728
;   std::time::duration::Duration::checked_add::_FILE_LINE
    _ZN3std4time8duration8Duration11checked_add10_FILE_LINE17hc95354a44eb8608cE @ 729 DATA
;   std::time::duration::Duration::checked_div::_FILE_LINE
    _ZN3std4time8duration8Duration11checked_div10_FILE_LINE17h7680d26ab55d5c6eE @ 730 DATA
;   std::time::duration::Duration::checked_mul::_FILE_LINE
    _ZN3std4time8duration8Duration11checked_mul10_FILE_LINE17h24402e91fd2f98b5E @ 731 DATA
;   std::time::duration::Duration::checked_sub::_FILE_LINE
    _ZN3std4time8duration8Duration11checked_sub10_FILE_LINE17h44d768a1ca6a86b0E @ 732 DATA
;   std::ascii::escape_default
    _ZN3std5ascii14escape_default17hbdd9cf02664241dfE @ 733
;   std::ascii::ASCII_LOWERCASE_MAP
    _ZN3std5ascii19ASCII_LOWERCASE_MAP17h42e685a72e2aacddE @ 734 DATA
;   std::ascii::ASCII_UPPERCASE_MAP
    _ZN3std5ascii19ASCII_UPPERCASE_MAP17h138b32503788e7bdE @ 735 DATA
;   std::ascii::ASCII_CHARACTER_CLASS
    _ZN3std5ascii21ASCII_CHARACTER_CLASS17hfe0d893783001d1eE @ 736 DATA
;   std::ascii::AsciiExt::is_ascii_digit::_FILE_LINE
    _ZN3std5ascii8AsciiExt14is_ascii_digit10_FILE_LINE17h0959037d651e702dE @ 737 DATA
;   std::ascii::AsciiExt::is_ascii_control::_FILE_LINE
    _ZN3std5ascii8AsciiExt16is_ascii_control10_FILE_LINE17h920aeb32c7fba754E @ 738 DATA
;   std::ascii::AsciiExt::is_ascii_graphic::_FILE_LINE
    _ZN3std5ascii8AsciiExt16is_ascii_graphic10_FILE_LINE17h6b38ccb56907719cE @ 739 DATA
;   std::ascii::AsciiExt::is_ascii_hexdigit::_FILE_LINE
    _ZN3std5ascii8AsciiExt17is_ascii_hexdigit10_FILE_LINE17h2fcee7c16cde4c21E @ 740 DATA
;   std::ascii::AsciiExt::is_ascii_lowercase::_FILE_LINE
    _ZN3std5ascii8AsciiExt18is_ascii_lowercase10_FILE_LINE17h21a50ec2e431a5c9E @ 741 DATA
;   std::ascii::AsciiExt::is_ascii_uppercase::_FILE_LINE
    _ZN3std5ascii8AsciiExt18is_ascii_uppercase10_FILE_LINE17h948c566be1fba6a9E @ 742 DATA
;   std::ascii::AsciiExt::is_ascii_alphabetic::_FILE_LINE
    _ZN3std5ascii8AsciiExt19is_ascii_alphabetic10_FILE_LINE17h3a8836196990974cE @ 743 DATA
;   std::ascii::AsciiExt::is_ascii_whitespace::_FILE_LINE
    _ZN3std5ascii8AsciiExt19is_ascii_whitespace10_FILE_LINE17he56d3a61ffc86e4cE @ 744 DATA
;   std::ascii::AsciiExt::is_ascii_punctuation::_FILE_LINE
    _ZN3std5ascii8AsciiExt20is_ascii_punctuation10_FILE_LINE17hb0fd55d016f84a97E @ 745 DATA
;   std::ascii::AsciiExt::is_ascii_alphanumeric::_FILE_LINE
    _ZN3std5ascii8AsciiExt21is_ascii_alphanumeric10_FILE_LINE17h9020731c86632799E @ 746 DATA
;   std::error::<impl core::convert::From<&'a str> for alloc::boxed::Box<std::error::Error + 'static>>::from
    "_ZN3std5error144_$LT$impl$u20$core..convert..From$LT$$RF$$u27$a$u20$str$GT$$u20$for$u20$alloc..boxed..Box$LT$std..error..Error$u20$$u2b$$u20$$u27$static$GT$$GT$4from17h1c0d8ab6f0cbdd42E" @ 747
;   std::error::<impl core::convert::From<collections::string::String> for alloc::boxed::Box<std::error::Error + 'static>>::from
    "_ZN3std5error153_$LT$impl$u20$core..convert..From$LT$collections..string..String$GT$$u20$for$u20$alloc..boxed..Box$LT$std..error..Error$u20$$u2b$$u20$$u27$static$GT$$GT$4from17h8e0707ce05965d64E" @ 748
;   std::error::<impl core::convert::From<&'b str> for alloc::boxed::Box<std::error::Error + core::marker::Sync + core::marker::Send + 'a>>::from
    "_ZN3std5error205_$LT$impl$u20$core..convert..From$LT$$RF$$u27$b$u20$str$GT$$u20$for$u20$alloc..boxed..Box$LT$std..error..Error$u20$$u2b$$u20$core..marker..Sync$u20$$u2b$$u20$core..marker..Send$u20$$u2b$$u20$$u27$a$GT$$GT$4from17h66fba8c10807a7eaE" @ 749
;   std::error::<impl core::convert::From<collections::string::String> for alloc::boxed::Box<std::error::Error + core::marker::Sync + core::marker::Send + 'static>>::from
    "_ZN3std5error219_$LT$impl$u20$core..convert..From$LT$collections..string..String$GT$$u20$for$u20$alloc..boxed..Box$LT$std..error..Error$u20$$u2b$$u20$core..marker..Sync$u20$$u2b$$u20$core..marker..Send$u20$$u2b$$u20$$u27$static$GT$$GT$4from17h4990c7fad80a05ffE" @ 750
;   std::panic::resume_unwind
    _ZN3std5panic13resume_unwind17heff709dee5ed647cE @ 751
;   std::thread::park_timeout
    _ZN3std6thread12park_timeout17h6ae6364a18f0e139E @ 752
;   std::thread::park_timeout_ms
    _ZN3std6thread15park_timeout_ms17hf9d61636254b2ae5E @ 753
;   std::thread::park
    _ZN3std6thread4park17h3fce156e849cbce8E @ 754
;   std::thread::sleep
    _ZN3std6thread5sleep17hd0ecf5cbaae9cfe1E @ 755
;   std::thread::Thread::id
    _ZN3std6thread6Thread2id17h6e7a9fb8e0db80a3E @ 756
;   std::thread::Thread::new
    _ZN3std6thread6Thread3new17hc146535107d78403E @ 757
;   std::thread::Thread::name
    _ZN3std6thread6Thread4name17h6b477b0a8ca710a8E @ 758
;   std::thread::Thread::cname
    _ZN3std6thread6Thread5cname17hfdebca6e204523e2E @ 759
;   std::thread::Thread::unpark
    _ZN3std6thread6Thread6unpark17hf1f81710e22c6e5cE @ 760
;   std::thread::Builder::stack_size
    _ZN3std6thread7Builder10stack_size17h21a13585414fb885E @ 761
;   std::thread::Builder::new
    _ZN3std6thread7Builder3new17h7f7d2c247620d243E @ 762
;   std::thread::Builder::name
    _ZN3std6thread7Builder4name17hc1844d0d786757e3E @ 763
;   std::thread::current
    _ZN3std6thread7current17h7dbf313deb12cad3E @ 764
;   std::thread::sleep_ms
    _ZN3std6thread8sleep_ms17hae62aa404c54c931E @ 765
;   std::thread::yield_now
    _ZN3std6thread9yield_now17hbba170e6dca1cd7cE @ 766
;   std::process::ExitStatus::code
    _ZN3std7process10ExitStatus4code17h3763d8d38df55fe8E @ 767
;   std::process::ExitStatus::success
    _ZN3std7process10ExitStatus7success17h07b11d52e32d63beE @ 768
;   std::process::exit
    _ZN3std7process4exit17h81b13e90d9d4bd3fE @ 769
;   std::process::Child::wait_with_output
    _ZN3std7process5Child16wait_with_output17h33d0f9bd926b6327E @ 770
;   std::process::Child::id
    _ZN3std7process5Child2id17h8b931a46aeec9424E @ 771
;   std::process::Child::kill
    _ZN3std7process5Child4kill17h8e8f782dab146d87E @ 772
;   std::process::Child::wait
    _ZN3std7process5Child4wait17hf04b2c3aefb0581aE @ 773
;   std::process::Child::try_wait
    _ZN3std7process5Child8try_wait17h038bf27dd242313cE @ 774
;   std::process::Stdio::null
    _ZN3std7process5Stdio4null17h5e8ec7518a873063E @ 775
;   std::process::Stdio::piped
    _ZN3std7process5Stdio5piped17h647384653a5d0d95E @ 776
;   std::process::Stdio::inherit
    _ZN3std7process5Stdio7inherit17h7bb00bd1651153dfE @ 777
;   std::process::abort
    _ZN3std7process5abort17hd1f0da1b01b97d5aE @ 778
;   std::process::Command::spawn
    _ZN3std7process7Command5spawn17h97dc20d60d104071E @ 779
;   std::process::Command::stdin
    _ZN3std7process7Command5stdin17h41a9f7145f7a5930E @ 780
;   std::process::Command::output
    _ZN3std7process7Command6output17h97b3a897702d2be7E @ 781
;   std::process::Command::status
    _ZN3std7process7Command6status17h0c80d24808bce346E @ 782
;   std::process::Command::stderr
    _ZN3std7process7Command6stderr17h729ae9b90c3035e7E @ 783
;   std::process::Command::stdout
    _ZN3std7process7Command6stdout17hfd834be8fd896102E @ 784
;   std::process::Command::env_clear
    _ZN3std7process7Command9env_clear17h16508b4a545f7315E @ 785
;   std::panicking::begin_panic_fmt
    _ZN3std9panicking15begin_panic_fmt17h4cedb5d60eaaba8bE @ 786
;   std::panicking::update_panic_count
    _ZN3std9panicking18update_panic_count17h585f679f4942c4a8E @ 787
;   std::panicking::rust_panic_with_hook
    _ZN3std9panicking20rust_panic_with_hook17hf0dbcd02e3620a52E @ 788
;   std::panicking::try::_FILE_LINE
    _ZN3std9panicking3try10_FILE_LINE17h4f29892e0cd8534eE @ 789 DATA
;   std::panicking::try::_FILE_LINE
    _ZN3std9panicking3try10_FILE_LINE17h96a34907ee7d6cb3E @ 790 DATA
;   std::panicking::Location::file
    _ZN3std9panicking8Location4file17hdbc0cf3ffda446aeE @ 791
;   std::panicking::Location::line
    _ZN3std9panicking8Location4line17hb2df55c0856fd1e6E @ 792
;   std::panicking::set_hook
    _ZN3std9panicking8set_hook17h1e170e0eb8e58633E @ 793
;   std::panicking::PanicInfo::payload
    _ZN3std9panicking9PanicInfo7payload17h4c5e81ff27ccd87eE @ 794
;   std::panicking::PanicInfo::location
    _ZN3std9panicking9PanicInfo8location17h20bfc867a3749fa4E @ 795
;   std::panicking::panicking
    _ZN3std9panicking9panicking17h99f8950836fe6b47E @ 796
;   std::panicking::take_hook
    _ZN3std9panicking9take_hook17ha51220dde6b3eb3dE @ 797
;   <alloc::raw_vec::RawVec<T>>::shrink_to_fit::_MSG_FILE_LINE
    "_ZN40_$LT$alloc..raw_vec..RawVec$LT$T$GT$$GT$13shrink_to_fit14_MSG_FILE_LINE17h3f8049e72adfbccfE" @ 798 DATA
;   <alloc::raw_vec::RawVec<T>>::double_in_place::_MSG_FILE_LINE
    "_ZN40_$LT$alloc..raw_vec..RawVec$LT$T$GT$$GT$15double_in_place14_MSG_FILE_LINE17h844fceddcb47c9d0E" @ 799 DATA
;   <alloc::raw_vec::RawVec<T>>::double::_MSG_FILE_LINE
    "_ZN40_$LT$alloc..raw_vec..RawVec$LT$T$GT$$GT$6double14_MSG_FILE_LINE17h6b34495081c96380E" @ 800 DATA
;   <i16 as std::net::NetInt>::to_be
    "_ZN40_$LT$i16$u20$as$u20$std..net..NetInt$GT$5to_be17h929a3ed5b3a8436eE" @ 801
;   <i16 as std::net::NetInt>::from_be
    "_ZN40_$LT$i16$u20$as$u20$std..net..NetInt$GT$7from_be17h6fe12066a65d0479E" @ 802
;   <i32 as std::net::NetInt>::to_be
    "_ZN40_$LT$i32$u20$as$u20$std..net..NetInt$GT$5to_be17hbfb8d8e1bc7eb24bE" @ 803
;   <i32 as std::net::NetInt>::from_be
    "_ZN40_$LT$i32$u20$as$u20$std..net..NetInt$GT$7from_be17ha92c307ba658b7dfE" @ 804
;   <i64 as std::net::NetInt>::to_be
    "_ZN40_$LT$i64$u20$as$u20$std..net..NetInt$GT$5to_be17h87aae183828f03f1E" @ 805
;   <i64 as std::net::NetInt>::from_be
    "_ZN40_$LT$i64$u20$as$u20$std..net..NetInt$GT$7from_be17h8c77f47aa9f8fbc2E" @ 806
;   <str as core::fmt::Debug>::fmt
    "_ZN40_$LT$str$u20$as$u20$core..fmt..Debug$GT$3fmt17hd2838abeee59964eE" @ 807
;   <u16 as std::net::NetInt>::to_be
    "_ZN40_$LT$u16$u20$as$u20$std..net..NetInt$GT$5to_be17h07177fc3f06b082dE" @ 808
;   <u16 as std::net::NetInt>::from_be
    "_ZN40_$LT$u16$u20$as$u20$std..net..NetInt$GT$7from_be17he1afec5e701f6342E" @ 809
;   <u32 as std::net::NetInt>::to_be
    "_ZN40_$LT$u32$u20$as$u20$std..net..NetInt$GT$5to_be17he17697f832ff109aE" @ 810
;   <u32 as std::net::NetInt>::from_be
    "_ZN40_$LT$u32$u20$as$u20$std..net..NetInt$GT$7from_be17h85b5b2fb2ac87aa1E" @ 811
;   <u64 as std::net::NetInt>::to_be
    "_ZN40_$LT$u64$u20$as$u20$std..net..NetInt$GT$5to_be17h207cdffd18928b99E" @ 812
;   <u64 as std::net::NetInt>::from_be
    "_ZN40_$LT$u64$u20$as$u20$std..net..NetInt$GT$7from_be17ha99097a68577442fE" @ 813
;   <bool as core::fmt::Debug>::fmt
    "_ZN41_$LT$bool$u20$as$u20$core..fmt..Debug$GT$3fmt17h2315b1c544a22373E" @ 814
;   <char as core::fmt::Debug>::fmt
    "_ZN41_$LT$char$u20$as$u20$core..fmt..Debug$GT$3fmt17h74bcdb8c2afd5706E" @ 815
;   <core::hash::sip::Hasher<S>>::short_write::_MSG_FILE_LINE
    "_ZN41_$LT$core..hash..sip..Hasher$LT$S$GT$$GT$11short_write14_MSG_FILE_LINE17h50eb60f1b683bbbdE" @ 816 DATA
;   <core::hash::sip::Hasher<S>>::short_write::_MSG_FILE_LINE
    "_ZN41_$LT$core..hash..sip..Hasher$LT$S$GT$$GT$11short_write14_MSG_FILE_LINE17h8eb0ce6febc59becE" @ 817 DATA
;   <std::sync::mpsc::Sender<T>>::send::_FILE_LINE
    "_ZN41_$LT$std..sync..mpsc..Sender$LT$T$GT$$GT$4send10_FILE_LINE17h7057eb48c44595acE" @ 818 DATA
;   <str as core::str::StrExt>::split_at_mut
    "_ZN41_$LT$str$u20$as$u20$core..str..StrExt$GT$12split_at_mut17hb3d6741d369ae90fE" @ 819
;   _$LT$$u21$$u20$as$u20$core..fmt..Debug$GT$::fmt::h0c71f6830b0a9b96
    "_ZN42_$LT$$u21$$u20$as$u20$core..fmt..Debug$GT$3fmt17h0c71f6830b0a9b96E" @ 820
;   <i8 as core::fmt::num::Int>::zero
    "_ZN42_$LT$i8$u20$as$u20$core..fmt..num..Int$GT$4zero17h5ff4475ff585b858E" @ 821
;   <i8 as core::fmt::num::Int>::to_u8
    "_ZN42_$LT$i8$u20$as$u20$core..fmt..num..Int$GT$5to_u817h9a1fe93a9b837bc6E" @ 822
;   <i8 as core::fmt::num::Int>::to_u16
    "_ZN42_$LT$i8$u20$as$u20$core..fmt..num..Int$GT$6to_u1617h7dfdfbe7ced55e4fE" @ 823
;   <i8 as core::fmt::num::Int>::to_u32
    "_ZN42_$LT$i8$u20$as$u20$core..fmt..num..Int$GT$6to_u3217h180edead4e201d6eE" @ 824
;   <i8 as core::fmt::num::Int>::to_u64
    "_ZN42_$LT$i8$u20$as$u20$core..fmt..num..Int$GT$6to_u6417hbad24ed4ec3bb777E" @ 825
;   <i8 as core::fmt::num::Int>::from_u8
    "_ZN42_$LT$i8$u20$as$u20$core..fmt..num..Int$GT$7from_u817h909a781ce81e2644E" @ 826
;   <i8 as core::fmt::num::Int>::to_u128
    "_ZN42_$LT$i8$u20$as$u20$core..fmt..num..Int$GT$7to_u12817h1b470a0b7e3e44f0E" @ 827
;   <isize as std::net::NetInt>::to_be
    "_ZN42_$LT$isize$u20$as$u20$std..net..NetInt$GT$5to_be17h7a807eb83f0aaa45E" @ 828
;   <isize as std::net::NetInt>::from_be
    "_ZN42_$LT$isize$u20$as$u20$std..net..NetInt$GT$7from_be17h5e87eedd59ac68ffE" @ 829
;   <str as core::fmt::Display>::fmt
    "_ZN42_$LT$str$u20$as$u20$core..fmt..Display$GT$3fmt17h9533f64a2023390aE" @ 830
;   <u8 as core::fmt::num::Int>::zero
    "_ZN42_$LT$u8$u20$as$u20$core..fmt..num..Int$GT$4zero17h43ab51f1f2dfc683E" @ 831
;   <u8 as core::fmt::num::Int>::to_u8
    "_ZN42_$LT$u8$u20$as$u20$core..fmt..num..Int$GT$5to_u817hd811bc3d6cdc07b7E" @ 832
;   <u8 as core::fmt::num::Int>::to_u16
    "_ZN42_$LT$u8$u20$as$u20$core..fmt..num..Int$GT$6to_u1617he7bdba5c5784868aE" @ 833
;   <u8 as core::fmt::num::Int>::to_u32
    "_ZN42_$LT$u8$u20$as$u20$core..fmt..num..Int$GT$6to_u3217h3eb2b3e7ac285e5dE" @ 834
;   <u8 as core::fmt::num::Int>::to_u64
    "_ZN42_$LT$u8$u20$as$u20$core..fmt..num..Int$GT$6to_u6417h72713f31361fedffE" @ 835
;   <u8 as core::fmt::num::Int>::from_u8
    "_ZN42_$LT$u8$u20$as$u20$core..fmt..num..Int$GT$7from_u817h9d96c1557f028c0aE" @ 836
;   <u8 as core::fmt::num::Int>::to_u128
    "_ZN42_$LT$u8$u20$as$u20$core..fmt..num..Int$GT$7to_u12817hea3a9a199eecf995E" @ 837
;   <usize as std::net::NetInt>::to_be
    "_ZN42_$LT$usize$u20$as$u20$std..net..NetInt$GT$5to_be17hd2f3252cc4fbc380E" @ 838
;   <usize as std::net::NetInt>::from_be
    "_ZN42_$LT$usize$u20$as$u20$std..net..NetInt$GT$7from_be17haed03f68e271c259E" @ 839
;   _$LT$$u21$$u20$as$u20$std..error..Error$GT$::description::h9a9fd2a9527b34e3
    "_ZN43_$LT$$u21$$u20$as$u20$std..error..Error$GT$11description17h9a9fd2a9527b34e3E" @ 840
;   <bool as core::fmt::Display>::fmt
    "_ZN43_$LT$bool$u20$as$u20$core..fmt..Display$GT$3fmt17h3d1a337d274de5f9E" @ 841
;   <char as core::fmt::Display>::fmt
    "_ZN43_$LT$char$u20$as$u20$core..fmt..Display$GT$3fmt17hdd2dbc3b661de2c5E" @ 842
;   <i16 as core::fmt::num::Int>::zero
    "_ZN43_$LT$i16$u20$as$u20$core..fmt..num..Int$GT$4zero17h52c35c32082969cfE" @ 843
;   <i16 as core::fmt::num::Int>::to_u8
    "_ZN43_$LT$i16$u20$as$u20$core..fmt..num..Int$GT$5to_u817h2415acef5cf5f130E" @ 844
;   <i16 as core::fmt::num::Int>::to_u16
    "_ZN43_$LT$i16$u20$as$u20$core..fmt..num..Int$GT$6to_u1617h143eae32e0aab1c6E" @ 845
;   <i16 as core::fmt::num::Int>::to_u32
    "_ZN43_$LT$i16$u20$as$u20$core..fmt..num..Int$GT$6to_u3217h47c36361655b3c53E" @ 846
;   <i16 as core::fmt::num::Int>::to_u64
    "_ZN43_$LT$i16$u20$as$u20$core..fmt..num..Int$GT$6to_u6417hede9a6771f602bbcE" @ 847
;   <i16 as core::fmt::num::Int>::from_u8
    "_ZN43_$LT$i16$u20$as$u20$core..fmt..num..Int$GT$7from_u817hb4e0ad4ce4186cccE" @ 848
;   <i16 as core::fmt::num::Int>::to_u128
    "_ZN43_$LT$i16$u20$as$u20$core..fmt..num..Int$GT$7to_u12817h187cd13cd59f9d7aE" @ 849
;   <i32 as core::fmt::num::Int>::zero
    "_ZN43_$LT$i32$u20$as$u20$core..fmt..num..Int$GT$4zero17h2a3aced1e6a09c3dE" @ 850
;   <i32 as core::fmt::num::Int>::to_u8
    "_ZN43_$LT$i32$u20$as$u20$core..fmt..num..Int$GT$5to_u817hbee8169068dd043bE" @ 851
;   <i32 as core::fmt::num::Int>::to_u16
    "_ZN43_$LT$i32$u20$as$u20$core..fmt..num..Int$GT$6to_u1617h04ef9c8664340cc2E" @ 852
;   <i32 as core::fmt::num::Int>::to_u32
    "_ZN43_$LT$i32$u20$as$u20$core..fmt..num..Int$GT$6to_u3217h3568aa1190a5bcf8E" @ 853
;   <i32 as core::fmt::num::Int>::to_u64
    "_ZN43_$LT$i32$u20$as$u20$core..fmt..num..Int$GT$6to_u6417hec23941899fb793dE" @ 854
;   <i32 as core::fmt::num::Int>::from_u8
    "_ZN43_$LT$i32$u20$as$u20$core..fmt..num..Int$GT$7from_u817h42a558ed86467439E" @ 855
;   <i32 as core::fmt::num::Int>::to_u128
    "_ZN43_$LT$i32$u20$as$u20$core..fmt..num..Int$GT$7to_u12817h7301760b9cb0f01fE" @ 856
;   <i64 as core::fmt::num::Int>::zero
    "_ZN43_$LT$i64$u20$as$u20$core..fmt..num..Int$GT$4zero17hd398dff564f08ef2E" @ 857
;   <i64 as core::fmt::num::Int>::to_u8
    "_ZN43_$LT$i64$u20$as$u20$core..fmt..num..Int$GT$5to_u817h47072356e46a7006E" @ 858
;   <i64 as core::fmt::num::Int>::to_u16
    "_ZN43_$LT$i64$u20$as$u20$core..fmt..num..Int$GT$6to_u1617hc3cf9bc8dd14a466E" @ 859
;   <i64 as core::fmt::num::Int>::to_u32
    "_ZN43_$LT$i64$u20$as$u20$core..fmt..num..Int$GT$6to_u3217hb505947b15c01519E" @ 860
;   <i64 as core::fmt::num::Int>::to_u64
    "_ZN43_$LT$i64$u20$as$u20$core..fmt..num..Int$GT$6to_u6417h3f72b32e6af981a2E" @ 861
;   <i64 as core::fmt::num::Int>::from_u8
    "_ZN43_$LT$i64$u20$as$u20$core..fmt..num..Int$GT$7from_u817h8c2c97ca63b6184bE" @ 862
;   <i64 as core::fmt::num::Int>::to_u128
    "_ZN43_$LT$i64$u20$as$u20$core..fmt..num..Int$GT$7to_u12817h2caa800963490008E" @ 863
;   <std::sync::mpsc::Receiver<T>>::recv::_FILE_LINE
    "_ZN43_$LT$std..sync..mpsc..Receiver$LT$T$GT$$GT$4recv10_FILE_LINE17h033f941d24a7aca5E" @ 864 DATA
;   <std::sync::mpsc::Receiver<T>>::recv::_FILE_LINE
    "_ZN43_$LT$std..sync..mpsc..Receiver$LT$T$GT$$GT$4recv10_FILE_LINE17h54cf1004c2057d36E" @ 865 DATA
;   <std::sync::mpsc::Receiver<T>>::recv::_FILE_LINE
    "_ZN43_$LT$std..sync..mpsc..Receiver$LT$T$GT$$GT$4recv10_FILE_LINE17hfef2a0dc5d5b2782E" @ 866 DATA
;   <u16 as core::fmt::num::Int>::zero
    "_ZN43_$LT$u16$u20$as$u20$core..fmt..num..Int$GT$4zero17hfda3535db6cc126cE" @ 867
;   <u16 as core::fmt::num::Int>::to_u8
    "_ZN43_$LT$u16$u20$as$u20$core..fmt..num..Int$GT$5to_u817h0b4f5c13be57a0abE" @ 868
;   <u16 as core::fmt::num::Int>::to_u16
    "_ZN43_$LT$u16$u20$as$u20$core..fmt..num..Int$GT$6to_u1617h6b76e41a8def1df2E" @ 869
;   <u16 as core::fmt::num::Int>::to_u32
    "_ZN43_$LT$u16$u20$as$u20$core..fmt..num..Int$GT$6to_u3217ha534580c26480105E" @ 870
;   <u16 as core::fmt::num::Int>::to_u64
    "_ZN43_$LT$u16$u20$as$u20$core..fmt..num..Int$GT$6to_u6417h60eeb6262b88aae4E" @ 871
;   <u16 as core::fmt::num::Int>::from_u8
    "_ZN43_$LT$u16$u20$as$u20$core..fmt..num..Int$GT$7from_u817h798b4865dbd70440E" @ 872
;   <u16 as core::fmt::num::Int>::to_u128
    "_ZN43_$LT$u16$u20$as$u20$core..fmt..num..Int$GT$7to_u12817hc7e6a97c8c8bc4e3E" @ 873
;   <u32 as core::fmt::num::Int>::zero
    "_ZN43_$LT$u32$u20$as$u20$core..fmt..num..Int$GT$4zero17hb52bbafbe8c1e321E" @ 874
;   <u32 as core::fmt::num::Int>::to_u8
    "_ZN43_$LT$u32$u20$as$u20$core..fmt..num..Int$GT$5to_u817ha361b9b9b497c589E" @ 875
;   <u32 as core::fmt::num::Int>::to_u16
    "_ZN43_$LT$u32$u20$as$u20$core..fmt..num..Int$GT$6to_u1617h91adad051f7eb89aE" @ 876
;   <u32 as core::fmt::num::Int>::to_u32
    "_ZN43_$LT$u32$u20$as$u20$core..fmt..num..Int$GT$6to_u3217h377e8f40380e526dE" @ 877
;   <u32 as core::fmt::num::Int>::to_u64
    "_ZN43_$LT$u32$u20$as$u20$core..fmt..num..Int$GT$6to_u6417h7b8323d5ce751fa8E" @ 878
;   <u32 as core::fmt::num::Int>::from_u8
    "_ZN43_$LT$u32$u20$as$u20$core..fmt..num..Int$GT$7from_u817hef8132c1d37d8a18E" @ 879
;   <u32 as core::fmt::num::Int>::to_u128
    "_ZN43_$LT$u32$u20$as$u20$core..fmt..num..Int$GT$7to_u12817h76320760a1802e77E" @ 880
;   <u64 as core::fmt::num::Int>::zero
    "_ZN43_$LT$u64$u20$as$u20$core..fmt..num..Int$GT$4zero17he939213d5794c6c6E" @ 881
;   <u64 as core::fmt::num::Int>::to_u8
    "_ZN43_$LT$u64$u20$as$u20$core..fmt..num..Int$GT$5to_u817h39a81818dc546129E" @ 882
;   <u64 as core::fmt::num::Int>::to_u16
    "_ZN43_$LT$u64$u20$as$u20$core..fmt..num..Int$GT$6to_u1617hd535730e24f7b06cE" @ 883
;   <u64 as core::fmt::num::Int>::to_u32
    "_ZN43_$LT$u64$u20$as$u20$core..fmt..num..Int$GT$6to_u3217h82eb92df84c04ec7E" @ 884
;   <u64 as core::fmt::num::Int>::to_u64
    "_ZN43_$LT$u64$u20$as$u20$core..fmt..num..Int$GT$6to_u6417h938565ad1acc990fE" @ 885
;   <u64 as core::fmt::num::Int>::from_u8
    "_ZN43_$LT$u64$u20$as$u20$core..fmt..num..Int$GT$7from_u817h4c8d3554a7a98a08E" @ 886
;   <u64 as core::fmt::num::Int>::to_u128
    "_ZN43_$LT$u64$u20$as$u20$core..fmt..num..Int$GT$7to_u12817h906b5e8738a743faE" @ 887
;   _$LT$$u21$$u20$as$u20$core..fmt..Display$GT$::fmt::h0fff4592fcb96a3b
    "_ZN44_$LT$$u21$$u20$as$u20$core..fmt..Display$GT$3fmt17h0fff4592fcb96a3bE" @ 888
;   <char as core::char::CharExt>::encode_utf8::_FILE_LINE
    "_ZN44_$LT$char$u20$as$u20$core..char..CharExt$GT$11encode_utf810_FILE_LINE17h6bedd25337ca4d18E" @ 889 DATA
;   <char as core::char::CharExt>::encode_utf8::__STATIC_FMTSTR
    "_ZN44_$LT$char$u20$as$u20$core..char..CharExt$GT$11encode_utf815__STATIC_FMTSTR17h2aa3b9b00cfebe03E" @ 890 DATA
;   <char as core::char::CharExt>::encode_utf16::_FILE_LINE
    "_ZN44_$LT$char$u20$as$u20$core..char..CharExt$GT$12encode_utf1610_FILE_LINE17hde7456e70666551dE" @ 891 DATA
;   <char as core::char::CharExt>::encode_utf16::__STATIC_FMTSTR
    "_ZN44_$LT$char$u20$as$u20$core..char..CharExt$GT$12encode_utf1615__STATIC_FMTSTR17h5cee4d8813f4c651E" @ 892 DATA
;   <char as core::char::CharExt>::to_digit::_MSG_FILE_LINE
    "_ZN44_$LT$char$u20$as$u20$core..char..CharExt$GT$8to_digit14_MSG_FILE_LINE17h0d2246f780b284ffE" @ 893 DATA
;   <i128 as core::fmt::num::Int>::zero
    "_ZN44_$LT$i128$u20$as$u20$core..fmt..num..Int$GT$4zero17h8603a980435f6ba1E" @ 894
;   <i128 as core::fmt::num::Int>::to_u8
    "_ZN44_$LT$i128$u20$as$u20$core..fmt..num..Int$GT$5to_u817h0a9dcdca1869fb3cE" @ 895
;   <i128 as core::fmt::num::Int>::to_u16
    "_ZN44_$LT$i128$u20$as$u20$core..fmt..num..Int$GT$6to_u1617h0b4a422d35f777ddE" @ 896
;   <i128 as core::fmt::num::Int>::to_u32
    "_ZN44_$LT$i128$u20$as$u20$core..fmt..num..Int$GT$6to_u3217h415bcd95f0489412E" @ 897
;   <i128 as core::fmt::num::Int>::to_u64
    "_ZN44_$LT$i128$u20$as$u20$core..fmt..num..Int$GT$6to_u6417h6b882fe832858a98E" @ 898
;   <i128 as core::fmt::num::Int>::from_u8
    "_ZN44_$LT$i128$u20$as$u20$core..fmt..num..Int$GT$7from_u817h23bde5c3678238b3E" @ 899
;   <i128 as core::fmt::num::Int>::to_u128
    "_ZN44_$LT$i128$u20$as$u20$core..fmt..num..Int$GT$7to_u12817h3068da0ef0ecc81aE" @ 900
;   <i8 as std::sys::imp::IsZero>::is_zero
    "_ZN44_$LT$i8$u20$as$u20$std..sys..imp..IsZero$GT$7is_zero17hd008124a578f2dd7E" @ 901
;   <str as std::ascii::AsciiExt>::make_ascii_lowercase
    "_ZN44_$LT$str$u20$as$u20$std..ascii..AsciiExt$GT$20make_ascii_lowercase17hf777a73c7010c682E" @ 902
;   <str as std::ascii::AsciiExt>::make_ascii_uppercase
    "_ZN44_$LT$str$u20$as$u20$std..ascii..AsciiExt$GT$20make_ascii_uppercase17h66860dd4711e10b3E" @ 903
;   <u128 as core::fmt::num::Int>::zero
    "_ZN44_$LT$u128$u20$as$u20$core..fmt..num..Int$GT$4zero17he7a568d231bbc796E" @ 904
;   <u128 as core::fmt::num::Int>::to_u8
    "_ZN44_$LT$u128$u20$as$u20$core..fmt..num..Int$GT$5to_u817h0c4b8f4a17e6b1ecE" @ 905
;   <u128 as core::fmt::num::Int>::to_u16
    "_ZN44_$LT$u128$u20$as$u20$core..fmt..num..Int$GT$6to_u1617ha6842409b77940d3E" @ 906
;   <u128 as core::fmt::num::Int>::to_u32
    "_ZN44_$LT$u128$u20$as$u20$core..fmt..num..Int$GT$6to_u3217hb925b283891fccceE" @ 907
;   <u128 as core::fmt::num::Int>::to_u64
    "_ZN44_$LT$u128$u20$as$u20$core..fmt..num..Int$GT$6to_u6417he4cb09f7651d35c9E" @ 908
;   <u128 as core::fmt::num::Int>::from_u8
    "_ZN44_$LT$u128$u20$as$u20$core..fmt..num..Int$GT$7from_u817hb7fac7cab2563a75E" @ 909
;   <u128 as core::fmt::num::Int>::to_u128
    "_ZN44_$LT$u128$u20$as$u20$core..fmt..num..Int$GT$7to_u12817h3db06ed8798e7ffcE" @ 910
;   <u8 as std::sys::imp::IsZero>::is_zero
    "_ZN44_$LT$u8$u20$as$u20$std..sys..imp..IsZero$GT$7is_zero17h4c2461939015e5a2E" @ 911
;   <() as core::fmt::Debug>::fmt
    "_ZN45_$LT$$LP$$RP$$u20$as$u20$core..fmt..Debug$GT$3fmt17hf09470fa27b97893E" @ 912
;   <i16 as std::sys::imp::IsZero>::is_zero
    "_ZN45_$LT$i16$u20$as$u20$std..sys..imp..IsZero$GT$7is_zero17hc2789c143697969cE" @ 913
;   <i32 as std::sys::imp::IsZero>::is_zero
    "_ZN45_$LT$i32$u20$as$u20$std..sys..imp..IsZero$GT$7is_zero17h6b22cf75efee7fa7E" @ 914
;   <i64 as std::sys::imp::IsZero>::is_zero
    "_ZN45_$LT$i64$u20$as$u20$std..sys..imp..IsZero$GT$7is_zero17h49387b4382513561E" @ 915
;   <isize as core::fmt::num::Int>::zero
    "_ZN45_$LT$isize$u20$as$u20$core..fmt..num..Int$GT$4zero17hc7552a1cd5364c15E" @ 916
;   <isize as core::fmt::num::Int>::to_u8
    "_ZN45_$LT$isize$u20$as$u20$core..fmt..num..Int$GT$5to_u817hb1e3d3f0fc055d1cE" @ 917
;   <isize as core::fmt::num::Int>::to_u16
    "_ZN45_$LT$isize$u20$as$u20$core..fmt..num..Int$GT$6to_u1617h140d388d76f91354E" @ 918
;   <isize as core::fmt::num::Int>::to_u32
    "_ZN45_$LT$isize$u20$as$u20$core..fmt..num..Int$GT$6to_u3217hcce8d44dfaafba7dE" @ 919
;   <isize as core::fmt::num::Int>::to_u64
    "_ZN45_$LT$isize$u20$as$u20$core..fmt..num..Int$GT$6to_u6417h7518bd7d64f4ffe2E" @ 920
;   <isize as core::fmt::num::Int>::from_u8
    "_ZN45_$LT$isize$u20$as$u20$core..fmt..num..Int$GT$7from_u817h80fc5d3513d9f793E" @ 921
;   <isize as core::fmt::num::Int>::to_u128
    "_ZN45_$LT$isize$u20$as$u20$core..fmt..num..Int$GT$7to_u12817h312207a0f3c06059E" @ 922
;   <u16 as std::sys::imp::IsZero>::is_zero
    "_ZN45_$LT$u16$u20$as$u20$std..sys..imp..IsZero$GT$7is_zero17hdb775041d409ee3fE" @ 923
;   <u32 as std::sys::imp::IsZero>::is_zero
    "_ZN45_$LT$u32$u20$as$u20$std..sys..imp..IsZero$GT$7is_zero17h1e2c9b7c2d932e08E" @ 924
;   <u64 as std::sys::imp::IsZero>::is_zero
    "_ZN45_$LT$u64$u20$as$u20$std..sys..imp..IsZero$GT$7is_zero17hd0efdf5975a4fe18E" @ 925
;   <usize as core::fmt::num::Int>::zero
    "_ZN45_$LT$usize$u20$as$u20$core..fmt..num..Int$GT$4zero17hd541ffd34a2ded03E" @ 926
;   <usize as core::fmt::num::Int>::to_u8
    "_ZN45_$LT$usize$u20$as$u20$core..fmt..num..Int$GT$5to_u817h2bdb961a2c070accE" @ 927
;   <usize as core::fmt::num::Int>::to_u16
    "_ZN45_$LT$usize$u20$as$u20$core..fmt..num..Int$GT$6to_u1617hce579f24ed6ce657E" @ 928
;   <usize as core::fmt::num::Int>::to_u32
    "_ZN45_$LT$usize$u20$as$u20$core..fmt..num..Int$GT$6to_u3217hd04573d518e43850E" @ 929
;   <usize as core::fmt::num::Int>::to_u64
    "_ZN45_$LT$usize$u20$as$u20$core..fmt..num..Int$GT$6to_u6417h5495134bf96cbf82E" @ 930
;   <usize as core::fmt::num::Int>::from_u8
    "_ZN45_$LT$usize$u20$as$u20$core..fmt..num..Int$GT$7from_u817h217b8ea4798ff987E" @ 931
;   <usize as core::fmt::num::Int>::to_u128
    "_ZN45_$LT$usize$u20$as$u20$core..fmt..num..Int$GT$7to_u12817h453a8005d21cdffeE" @ 932
;   <isize as std::sys::imp::IsZero>::is_zero
    "_ZN47_$LT$isize$u20$as$u20$std..sys..imp..IsZero$GT$7is_zero17h845aa7e345c98b3eE" @ 933
;   <std::fs::File as std::io::Read>::read_to_end
    "_ZN47_$LT$std..fs..File$u20$as$u20$std..io..Read$GT$11read_to_end17h71158768eb8d6c15E" @ 934
;   <std::fs::File as std::io::Read>::read
    "_ZN47_$LT$std..fs..File$u20$as$u20$std..io..Read$GT$4read17h5949c99cff271292E" @ 935
;   <std::fs::File as std::io::Seek>::seek
    "_ZN47_$LT$std..fs..File$u20$as$u20$std..io..Seek$GT$4seek17h106fab59517c1b82E" @ 936
;   <std::sync::mpsc::sync::Buffer<T>>::enqueue::_FILE_LINE
    "_ZN47_$LT$std..sync..mpsc..sync..Buffer$LT$T$GT$$GT$7enqueue10_FILE_LINE17h624a99532c88c2ecE" @ 937 DATA
;   <std::sync::mpsc::sync::Packet<T>>::wakeup_senders::_FILE_LINE
    "_ZN47_$LT$std..sync..mpsc..sync..Packet$LT$T$GT$$GT$14wakeup_senders10_FILE_LINE17h8abbb614b5b90db5E" @ 938 DATA
;   <std::sync::mpsc::sync::Packet<T>>::start_selection::_FILE_LINE
    "_ZN47_$LT$std..sync..mpsc..sync..Packet$LT$T$GT$$GT$15start_selection10_FILE_LINE17hb83ade6f4300bd71E" @ 939 DATA
;   <std::sync::mpsc::sync::Packet<T>>::start_selection::_FILE_LINE
    "_ZN47_$LT$std..sync..mpsc..sync..Packet$LT$T$GT$$GT$15start_selection10_FILE_LINE17hf51089aeaa6bf4d5E" @ 940 DATA
;   <std::sync::mpsc::sync::Packet<T>>::recv::_FILE_LINE
    "_ZN47_$LT$std..sync..mpsc..sync..Packet$LT$T$GT$$GT$4recv10_FILE_LINE17hcb48fd01651e2a9eE" @ 941 DATA
;   <std::sync::mpsc::sync::Packet<T>>::send::_FILE_LINE
    "_ZN47_$LT$std..sync..mpsc..sync..Packet$LT$T$GT$$GT$4send10_FILE_LINE17h023d405fc05275b2E" @ 942 DATA
;   <std::sync::mpsc::sync::Packet<T>>::send::_FILE_LINE
    "_ZN47_$LT$std..sync..mpsc..sync..Packet$LT$T$GT$$GT$4send10_FILE_LINE17hef11d09712acbdf6E" @ 943 DATA
;   <std::sync::mpsc::sync::Packet<T>>::try_send::_FILE_LINE
    "_ZN47_$LT$std..sync..mpsc..sync..Packet$LT$T$GT$$GT$8try_send10_FILE_LINE17h16d7af9d52249f54E" @ 944 DATA
;   <std::sync::mpsc::sync::Packet<T>>::try_send::_FILE_LINE
    "_ZN47_$LT$std..sync..mpsc..sync..Packet$LT$T$GT$$GT$8try_send10_FILE_LINE17h2a7ca13aab7670bcE" @ 945 DATA
;   <std::sync::mpsc::sync::Packet<T>>::try_send::_FILE_LINE
    "_ZN47_$LT$std..sync..mpsc..sync..Packet$LT$T$GT$$GT$8try_send10_FILE_LINE17h6d33864fb6a29162E" @ 946 DATA
;   <std::sync::mpsc::sync::Packet<T>>::drop_chan::_FILE_LINE
    "_ZN47_$LT$std..sync..mpsc..sync..Packet$LT$T$GT$$GT$9drop_chan10_FILE_LINE17haf4eda23bd68a930E" @ 947 DATA
;   <std::sync::mpsc::sync::Packet<T>>::drop_port::_FILE_LINE
    "_ZN47_$LT$std..sync..mpsc..sync..Packet$LT$T$GT$$GT$9drop_port10_FILE_LINE17h28e9705728249725E" @ 948 DATA
;   <usize as std::sys::imp::IsZero>::is_zero
    "_ZN47_$LT$usize$u20$as$u20$std..sys..imp..IsZero$GT$7is_zero17hd3a687c4cae332fbE" @ 949
;   <std::fs::File as std::io::Write>::flush
    "_ZN48_$LT$std..fs..File$u20$as$u20$std..io..Write$GT$5flush17h2157d66faff96efaE" @ 950
;   <std::fs::File as std::io::Write>::write
    "_ZN48_$LT$std..fs..File$u20$as$u20$std..io..Write$GT$5write17h79d33bc118908ae2E" @ 951
;   <std::sync::mpsc::shared::Packet<T>>::take_to_wake::_FILE_LINE
    "_ZN49_$LT$std..sync..mpsc..shared..Packet$LT$T$GT$$GT$12take_to_wake10_FILE_LINE17h6c5dcc70b0203858E" @ 952 DATA
;   <std::sync::mpsc::shared::Packet<T>>::abort_selection::_FILE_LINE
    "_ZN49_$LT$std..sync..mpsc..shared..Packet$LT$T$GT$$GT$15abort_selection10_FILE_LINE17h6d9a81464ba821e0E" @ 953 DATA
;   <std::sync::mpsc::shared::Packet<T>>::abort_selection::_FILE_LINE
    "_ZN49_$LT$std..sync..mpsc..shared..Packet$LT$T$GT$$GT$15abort_selection10_FILE_LINE17ha4b9e93866095eeaE" @ 954 DATA
;   <std::sync::mpsc::shared::Packet<T>>::abort_selection::_FILE_LINE
    "_ZN49_$LT$std..sync..mpsc..shared..Packet$LT$T$GT$$GT$15abort_selection10_FILE_LINE17hd3c5ee78e87327e1E" @ 955 DATA
;   <std::sync::mpsc::shared::Packet<T>>::abort_selection::__STATIC_FMTSTR
    "_ZN49_$LT$std..sync..mpsc..shared..Packet$LT$T$GT$$GT$15abort_selection15__STATIC_FMTSTR17h9ce1485a078ddcd7E" @ 956 DATA
;   <std::sync::mpsc::shared::Packet<T>>::inherit_blocker::{{closure}}::_FILE_LINE
    "_ZN49_$LT$std..sync..mpsc..shared..Packet$LT$T$GT$$GT$15inherit_blocker28_$u7b$$u7b$closure$u7d$$u7d$10_FILE_LINE17h3c66a18092cb1233E" @ 957 DATA
;   <std::sync::mpsc::shared::Packet<T>>::inherit_blocker::{{closure}}::_FILE_LINE
    "_ZN49_$LT$std..sync..mpsc..shared..Packet$LT$T$GT$$GT$15inherit_blocker28_$u7b$$u7b$closure$u7d$$u7d$10_FILE_LINE17h7aa2b37b2b15af5fE" @ 958 DATA
;   <std::sync::mpsc::shared::Packet<T>>::inherit_blocker::{{closure}}::__STATIC_FMTSTR
    "_ZN49_$LT$std..sync..mpsc..shared..Packet$LT$T$GT$$GT$15inherit_blocker28_$u7b$$u7b$closure$u7d$$u7d$15__STATIC_FMTSTR17h30d5584055fd5599E" @ 959 DATA
;   <std::sync::mpsc::shared::Packet<T>>::inherit_blocker::{{closure}}::__STATIC_FMTSTR
    "_ZN49_$LT$std..sync..mpsc..shared..Packet$LT$T$GT$$GT$15inherit_blocker28_$u7b$$u7b$closure$u7d$$u7d$15__STATIC_FMTSTR17h5909eaf4d0cbc0d3E" @ 960 DATA
;   <std::sync::mpsc::shared::Packet<T>>::start_selection::_FILE_LINE
    "_ZN49_$LT$std..sync..mpsc..shared..Packet$LT$T$GT$$GT$15start_selection10_FILE_LINE17h831f0331fd2cab05E" @ 961 DATA
;   <std::sync::mpsc::shared::Packet<T>>::try_recv::_FILE_LINE
    "_ZN49_$LT$std..sync..mpsc..shared..Packet$LT$T$GT$$GT$8try_recv10_FILE_LINE17h2369a3b2ce714503E" @ 962 DATA
;   <std::sync::mpsc::shared::Packet<T>>::try_recv::_FILE_LINE
    "_ZN49_$LT$std..sync..mpsc..shared..Packet$LT$T$GT$$GT$8try_recv10_FILE_LINE17h4d0d836fccd06639E" @ 963 DATA
;   <std::sync::mpsc::shared::Packet<T>>::try_recv::_FILE_LINE
    "_ZN49_$LT$std..sync..mpsc..shared..Packet$LT$T$GT$$GT$8try_recv10_FILE_LINE17hde6b2e776914407aE" @ 964 DATA
;   <std::sync::mpsc::shared::Packet<T>>::decrement::_FILE_LINE
    "_ZN49_$LT$std..sync..mpsc..shared..Packet$LT$T$GT$$GT$9decrement10_FILE_LINE17hc70d9ad306a96244E" @ 965 DATA
;   <std::sync::mpsc::shared::Packet<T>>::decrement::_FILE_LINE
    "_ZN49_$LT$std..sync..mpsc..shared..Packet$LT$T$GT$$GT$9decrement10_FILE_LINE17hc9351aad58e3947cE" @ 966 DATA
;   <std::sync::mpsc::shared::Packet<T>>::decrement::__STATIC_FMTSTR
    "_ZN49_$LT$std..sync..mpsc..shared..Packet$LT$T$GT$$GT$9decrement15__STATIC_FMTSTR17hfbba46d91e0e0544E" @ 967 DATA
;   <std::sync::mpsc::shared::Packet<T>>::drop_chan::_FILE_LINE
    "_ZN49_$LT$std..sync..mpsc..shared..Packet$LT$T$GT$$GT$9drop_chan10_FILE_LINE17ha4dc584360887cdeE" @ 968 DATA
;   <std::sync::mpsc::shared::Packet<T>>::drop_chan::_FILE_LINE
    "_ZN49_$LT$std..sync..mpsc..shared..Packet$LT$T$GT$$GT$9drop_chan10_FILE_LINE17hdd56b15a0100653eE" @ 969 DATA
;   <std::sync::mpsc::shared::Packet<T>>::drop_chan::__STATIC_FMTSTR
    "_ZN49_$LT$std..sync..mpsc..shared..Packet$LT$T$GT$$GT$9drop_chan15__STATIC_FMTSTR17hda6f5b5ea344d6a4E" @ 970 DATA
;   <std::sync::mpsc::stream::Packet<T>>::take_to_wake::_FILE_LINE
    "_ZN49_$LT$std..sync..mpsc..stream..Packet$LT$T$GT$$GT$12take_to_wake10_FILE_LINE17h5f7fa32701359e72E" @ 971 DATA
;   <std::sync::mpsc::stream::Packet<T>>::abort_selection::_FILE_LINE
    "_ZN49_$LT$std..sync..mpsc..stream..Packet$LT$T$GT$$GT$15abort_selection10_FILE_LINE17h1c1b4db1db93ba0fE" @ 972 DATA
;   <std::sync::mpsc::stream::Packet<T>>::abort_selection::_FILE_LINE
    "_ZN49_$LT$std..sync..mpsc..stream..Packet$LT$T$GT$$GT$15abort_selection10_FILE_LINE17h37544f548302171cE" @ 973 DATA
;   <std::sync::mpsc::stream::Packet<T>>::abort_selection::_FILE_LINE
    "_ZN49_$LT$std..sync..mpsc..stream..Packet$LT$T$GT$$GT$15abort_selection10_FILE_LINE17h47c0882622db3ec2E" @ 974 DATA
;   <std::sync::mpsc::stream::Packet<T>>::abort_selection::_FILE_LINE
    "_ZN49_$LT$std..sync..mpsc..stream..Packet$LT$T$GT$$GT$15abort_selection10_FILE_LINE17h99b81598d84c4086E" @ 975 DATA
;   <std::sync::mpsc::stream::Packet<T>>::abort_selection::_FILE_LINE
    "_ZN49_$LT$std..sync..mpsc..stream..Packet$LT$T$GT$$GT$15abort_selection10_FILE_LINE17ha79d5f827b2216f1E" @ 976 DATA
;   <std::sync::mpsc::stream::Packet<T>>::abort_selection::_FILE_LINE
    "_ZN49_$LT$std..sync..mpsc..stream..Packet$LT$T$GT$$GT$15abort_selection10_FILE_LINE17hdc73fd7faa56c66eE" @ 977 DATA
;   <std::sync::mpsc::stream::Packet<T>>::abort_selection::__STATIC_FMTSTR
    "_ZN49_$LT$std..sync..mpsc..stream..Packet$LT$T$GT$$GT$15abort_selection15__STATIC_FMTSTR17h3499f961cf6fe2f0E" @ 978 DATA
;   <std::sync::mpsc::stream::Packet<T>>::abort_selection::__STATIC_FMTSTR
    "_ZN49_$LT$std..sync..mpsc..stream..Packet$LT$T$GT$$GT$15abort_selection15__STATIC_FMTSTR17h5b1d26135e65dbc4E" @ 979 DATA
;   <std::sync::mpsc::stream::Packet<T>>::abort_selection::__STATIC_FMTSTR
    "_ZN49_$LT$std..sync..mpsc..stream..Packet$LT$T$GT$$GT$15abort_selection15__STATIC_FMTSTR17h61587a908d9c91e1E" @ 980 DATA
;   <std::sync::mpsc::stream::Packet<T>>::abort_selection::__STATIC_FMTSTR
    "_ZN49_$LT$std..sync..mpsc..stream..Packet$LT$T$GT$$GT$15abort_selection15__STATIC_FMTSTR17h69f8966cb142a5c4E" @ 981 DATA
;   <std::sync::mpsc::stream::Packet<T>>::start_selection::_FILE_LINE
    "_ZN49_$LT$std..sync..mpsc..stream..Packet$LT$T$GT$$GT$15start_selection10_FILE_LINE17h4481f9b1ebb3f794E" @ 982 DATA
;   <std::sync::mpsc::stream::Packet<T>>::start_selection::_FILE_LINE
    "_ZN49_$LT$std..sync..mpsc..stream..Packet$LT$T$GT$$GT$15start_selection10_FILE_LINE17h585612bdab23819dE" @ 983 DATA
;   <std::sync::mpsc::stream::Packet<T>>::do_send::_FILE_LINE
    "_ZN49_$LT$std..sync..mpsc..stream..Packet$LT$T$GT$$GT$7do_send10_FILE_LINE17h3eae1926c9e8b57dE" @ 984 DATA
;   <std::sync::mpsc::stream::Packet<T>>::do_send::_FILE_LINE
    "_ZN49_$LT$std..sync..mpsc..stream..Packet$LT$T$GT$$GT$7do_send10_FILE_LINE17hb81a8dd7c4ace33cE" @ 985 DATA
;   <std::sync::mpsc::stream::Packet<T>>::can_recv::_FILE_LINE
    "_ZN49_$LT$std..sync..mpsc..stream..Packet$LT$T$GT$$GT$8can_recv10_FILE_LINE17h856bd6f48b1c07a4E" @ 986 DATA
;   <std::sync::mpsc::stream::Packet<T>>::try_recv::_FILE_LINE
    "_ZN49_$LT$std..sync..mpsc..stream..Packet$LT$T$GT$$GT$8try_recv10_FILE_LINE17h4f2d442312fe9eb0E" @ 987 DATA
;   <std::sync::mpsc::stream::Packet<T>>::decrement::_FILE_LINE
    "_ZN49_$LT$std..sync..mpsc..stream..Packet$LT$T$GT$$GT$9decrement10_FILE_LINE17h4aed84c0653a67f5E" @ 988 DATA
;   <std::sync::mpsc::stream::Packet<T>>::decrement::_FILE_LINE
    "_ZN49_$LT$std..sync..mpsc..stream..Packet$LT$T$GT$$GT$9decrement10_FILE_LINE17hedecf82387548b92E" @ 989 DATA
;   <std::sync::mpsc::stream::Packet<T>>::decrement::__STATIC_FMTSTR
    "_ZN49_$LT$std..sync..mpsc..stream..Packet$LT$T$GT$$GT$9decrement15__STATIC_FMTSTR17hea6d38a4420afa34E" @ 990 DATA
;   <std::sync::mpsc::stream::Packet<T>>::drop_chan::_FILE_LINE
    "_ZN49_$LT$std..sync..mpsc..stream..Packet$LT$T$GT$$GT$9drop_chan10_FILE_LINE17hef081c6f0dd35d71E" @ 991 DATA
;   <u8 as core::num::bignum::FullOps>::full_div_rem
    "_ZN49_$LT$u8$u20$as$u20$core..num..bignum..FullOps$GT$12full_div_rem17h7ac3beff7304075eE" @ 992
;   <u8 as core::num::bignum::FullOps>::full_mul_add
    "_ZN49_$LT$u8$u20$as$u20$core..num..bignum..FullOps$GT$12full_mul_add17hea5c0ef04fde2819E" @ 993
;   <u8 as core::num::bignum::FullOps>::full_add
    "_ZN49_$LT$u8$u20$as$u20$core..num..bignum..FullOps$GT$8full_add17h9208d6728f4d8516E" @ 994
;   <u8 as core::num::bignum::FullOps>::full_mul
    "_ZN49_$LT$u8$u20$as$u20$core..num..bignum..FullOps$GT$8full_mul17h97309c1676d34411E" @ 995
;   core::char_private::is_printable
    _ZN4core12char_private12is_printable17h7fd951e2d87ee32dE @ 996
;   core::cmp::impls::_$LT$impl$u20$core..cmp..Ord$u20$for$u20$$u21$$GT$::cmp::h7ce564d29f02b82c
    "_ZN4core3cmp5impls50_$LT$impl$u20$core..cmp..Ord$u20$for$u20$$u21$$GT$3cmp17h7ce564d29f02b82cE" @ 997
;   core::cmp::impls::_$LT$impl$u20$core..cmp..PartialEq$u20$for$u20$$u21$$GT$::eq::hfcdb47c04583adbf
    "_ZN4core3cmp5impls56_$LT$impl$u20$core..cmp..PartialEq$u20$for$u20$$u21$$GT$2eq17hfcdb47c04583adbfE" @ 998
;   core::cmp::impls::_$LT$impl$u20$core..cmp..PartialOrd$u20$for$u20$$u21$$GT$::partial_cmp::h007155f22e75dc5a
    "_ZN4core3cmp5impls57_$LT$impl$u20$core..cmp..PartialOrd$u20$for$u20$$u21$$GT$11partial_cmp17h007155f22e75dc5aE" @ 999
;   core::f32::<impl core::num::Float for f32>::classify
    "_ZN4core3f3250_$LT$impl$u20$core..num..Float$u20$for$u20$f32$GT$8classify17h0ffc4c13d7219879E" @ 1000
;   core::f64::<impl core::num::Float for f64>::classify
    "_ZN4core3f6450_$LT$impl$u20$core..num..Float$u20$for$u20$f64$GT$8classify17hc230972b1d2afaf4E" @ 1001
;   core::fmt::ArgumentV1::from_usize
    _ZN4core3fmt10ArgumentV110from_usize17h22b7d78f5150a76fE @ 1002
;   core::fmt::num::<impl core::fmt::Debug for i8>::fmt
    "_ZN4core3fmt3num49_$LT$impl$u20$core..fmt..Debug$u20$for$u20$i8$GT$3fmt17ha53fe06ae96d24ddE" @ 1003
;   core::fmt::num::<impl core::fmt::Debug for u8>::fmt
    "_ZN4core3fmt3num49_$LT$impl$u20$core..fmt..Debug$u20$for$u20$u8$GT$3fmt17h96ccf102c8cbc769E" @ 1004
;   core::fmt::num::<impl core::fmt::Octal for i8>::fmt
    "_ZN4core3fmt3num49_$LT$impl$u20$core..fmt..Octal$u20$for$u20$i8$GT$3fmt17h8ecb9380b3d5106aE" @ 1005
;   core::fmt::num::<impl core::fmt::Octal for u8>::fmt
    "_ZN4core3fmt3num49_$LT$impl$u20$core..fmt..Octal$u20$for$u20$u8$GT$3fmt17h599e065cce5f628cE" @ 1006
;   core::fmt::num::<impl core::fmt::Binary for i8>::fmt
    "_ZN4core3fmt3num50_$LT$impl$u20$core..fmt..Binary$u20$for$u20$i8$GT$3fmt17h6cc72e4fe17240dfE" @ 1007
;   core::fmt::num::<impl core::fmt::Binary for u8>::fmt
    "_ZN4core3fmt3num50_$LT$impl$u20$core..fmt..Binary$u20$for$u20$u8$GT$3fmt17h2daf0e59e59ad1c2E" @ 1008
;   core::fmt::num::<impl core::fmt::Debug for i16>::fmt
    "_ZN4core3fmt3num50_$LT$impl$u20$core..fmt..Debug$u20$for$u20$i16$GT$3fmt17hf91df840d69d383fE" @ 1009
;   core::fmt::num::<impl core::fmt::Debug for i32>::fmt
    "_ZN4core3fmt3num50_$LT$impl$u20$core..fmt..Debug$u20$for$u20$i32$GT$3fmt17h796393c6b34a4e2cE" @ 1010
;   core::fmt::num::<impl core::fmt::Debug for i64>::fmt
    "_ZN4core3fmt3num50_$LT$impl$u20$core..fmt..Debug$u20$for$u20$i64$GT$3fmt17ha01e5421b230bfb6E" @ 1011
;   core::fmt::num::<impl core::fmt::Debug for u16>::fmt
    "_ZN4core3fmt3num50_$LT$impl$u20$core..fmt..Debug$u20$for$u20$u16$GT$3fmt17h57c61ec025d0f1aeE" @ 1012
;   core::fmt::num::<impl core::fmt::Debug for u32>::fmt
    "_ZN4core3fmt3num50_$LT$impl$u20$core..fmt..Debug$u20$for$u20$u32$GT$3fmt17h195cf7c5f258c6e8E" @ 1013
;   core::fmt::num::<impl core::fmt::Debug for u64>::fmt
    "_ZN4core3fmt3num50_$LT$impl$u20$core..fmt..Debug$u20$for$u20$u64$GT$3fmt17h9fdb0229e260bd21E" @ 1014
;   core::fmt::num::<impl core::fmt::Octal for i16>::fmt
    "_ZN4core3fmt3num50_$LT$impl$u20$core..fmt..Octal$u20$for$u20$i16$GT$3fmt17h3353b339adef6c17E" @ 1015
;   core::fmt::num::<impl core::fmt::Octal for i32>::fmt
    "_ZN4core3fmt3num50_$LT$impl$u20$core..fmt..Octal$u20$for$u20$i32$GT$3fmt17hf45f02907d1db653E" @ 1016
;   core::fmt::num::<impl core::fmt::Octal for i64>::fmt
    "_ZN4core3fmt3num50_$LT$impl$u20$core..fmt..Octal$u20$for$u20$i64$GT$3fmt17hb201697f7381aa20E" @ 1017
;   core::fmt::num::<impl core::fmt::Octal for u16>::fmt
    "_ZN4core3fmt3num50_$LT$impl$u20$core..fmt..Octal$u20$for$u20$u16$GT$3fmt17h2c5a59e449698d10E" @ 1018
;   core::fmt::num::<impl core::fmt::Octal for u32>::fmt
    "_ZN4core3fmt3num50_$LT$impl$u20$core..fmt..Octal$u20$for$u20$u32$GT$3fmt17h07e1e93abcff4992E" @ 1019
;   core::fmt::num::<impl core::fmt::Octal for u64>::fmt
    "_ZN4core3fmt3num50_$LT$impl$u20$core..fmt..Octal$u20$for$u20$u64$GT$3fmt17h7d4528c2cbf06f27E" @ 1020
;   core::fmt::num::<impl core::fmt::Binary for i16>::fmt
    "_ZN4core3fmt3num51_$LT$impl$u20$core..fmt..Binary$u20$for$u20$i16$GT$3fmt17h461487557b773a03E" @ 1021
;   core::fmt::num::<impl core::fmt::Binary for i32>::fmt
    "_ZN4core3fmt3num51_$LT$impl$u20$core..fmt..Binary$u20$for$u20$i32$GT$3fmt17h2633c792f23b6fcfE" @ 1022
;   core::fmt::num::<impl core::fmt::Binary for i64>::fmt
    "_ZN4core3fmt3num51_$LT$impl$u20$core..fmt..Binary$u20$for$u20$i64$GT$3fmt17h83cb1cb774957e5bE" @ 1023
;   core::fmt::num::<impl core::fmt::Binary for u16>::fmt
    "_ZN4core3fmt3num51_$LT$impl$u20$core..fmt..Binary$u20$for$u20$u16$GT$3fmt17hef24153c2b64b86dE" @ 1024
;   core::fmt::num::<impl core::fmt::Binary for u32>::fmt
    "_ZN4core3fmt3num51_$LT$impl$u20$core..fmt..Binary$u20$for$u20$u32$GT$3fmt17h3cea7813e75cd763E" @ 1025
;   core::fmt::num::<impl core::fmt::Binary for u64>::fmt
    "_ZN4core3fmt3num51_$LT$impl$u20$core..fmt..Binary$u20$for$u20$u64$GT$3fmt17h47184f50e5a05d67E" @ 1026
;   core::fmt::num::<impl core::fmt::Debug for i128>::fmt
    "_ZN4core3fmt3num51_$LT$impl$u20$core..fmt..Debug$u20$for$u20$i128$GT$3fmt17h35001dd859d4503bE" @ 1027
;   core::fmt::num::<impl core::fmt::Debug for u128>::fmt
    "_ZN4core3fmt3num51_$LT$impl$u20$core..fmt..Debug$u20$for$u20$u128$GT$3fmt17h4312811067cdc4feE" @ 1028
;   core::fmt::num::<impl core::fmt::Display for i8>::fmt
    "_ZN4core3fmt3num51_$LT$impl$u20$core..fmt..Display$u20$for$u20$i8$GT$3fmt17hf0c6b9a079e99200E" @ 1029
;   core::fmt::num::<impl core::fmt::Display for u8>::fmt
    "_ZN4core3fmt3num51_$LT$impl$u20$core..fmt..Display$u20$for$u20$u8$GT$3fmt17hcc03cb699b4f63eeE" @ 1030
;   core::fmt::num::<impl core::fmt::Octal for i128>::fmt
    "_ZN4core3fmt3num51_$LT$impl$u20$core..fmt..Octal$u20$for$u20$i128$GT$3fmt17hd7469de230f350a1E" @ 1031
;   core::fmt::num::<impl core::fmt::Octal for u128>::fmt
    "_ZN4core3fmt3num51_$LT$impl$u20$core..fmt..Octal$u20$for$u20$u128$GT$3fmt17h0e197b1f4faf63a8E" @ 1032
;   core::fmt::num::<impl core::fmt::Binary for i128>::fmt
    "_ZN4core3fmt3num52_$LT$impl$u20$core..fmt..Binary$u20$for$u20$i128$GT$3fmt17h4196d53e57ad85e3E" @ 1033
;   core::fmt::num::<impl core::fmt::Binary for u128>::fmt
    "_ZN4core3fmt3num52_$LT$impl$u20$core..fmt..Binary$u20$for$u20$u128$GT$3fmt17h5f77495853cc96caE" @ 1034
;   core::fmt::num::<impl core::fmt::Debug for isize>::fmt
    "_ZN4core3fmt3num52_$LT$impl$u20$core..fmt..Debug$u20$for$u20$isize$GT$3fmt17h8881bbbb286bcadaE" @ 1035
;   core::fmt::num::<impl core::fmt::Debug for usize>::fmt
    "_ZN4core3fmt3num52_$LT$impl$u20$core..fmt..Debug$u20$for$u20$usize$GT$3fmt17h145c5a591559a096E" @ 1036
;   core::fmt::num::<impl core::fmt::Display for i16>::fmt
    "_ZN4core3fmt3num52_$LT$impl$u20$core..fmt..Display$u20$for$u20$i16$GT$3fmt17hb25363548ef0ce83E" @ 1037
;   core::fmt::num::<impl core::fmt::Display for i32>::fmt
    "_ZN4core3fmt3num52_$LT$impl$u20$core..fmt..Display$u20$for$u20$i32$GT$3fmt17h7f015c024709f5f3E" @ 1038
;   core::fmt::num::<impl core::fmt::Display for i64>::fmt
    "_ZN4core3fmt3num52_$LT$impl$u20$core..fmt..Display$u20$for$u20$i64$GT$3fmt17h6da111b83b1a1e51E" @ 1039
;   core::fmt::num::<impl core::fmt::Display for u16>::fmt
    "_ZN4core3fmt3num52_$LT$impl$u20$core..fmt..Display$u20$for$u20$u16$GT$3fmt17h709a0ddf28b8ecd1E" @ 1040
;   core::fmt::num::<impl core::fmt::Display for u32>::fmt
    "_ZN4core3fmt3num52_$LT$impl$u20$core..fmt..Display$u20$for$u20$u32$GT$3fmt17hd5e201d830ab80a6E" @ 1041
;   core::fmt::num::<impl core::fmt::Display for u64>::fmt
    "_ZN4core3fmt3num52_$LT$impl$u20$core..fmt..Display$u20$for$u20$u64$GT$3fmt17h8aacb7fdfe94d7c4E" @ 1042
;   core::fmt::num::<impl core::fmt::LowerHex for i8>::fmt
    "_ZN4core3fmt3num52_$LT$impl$u20$core..fmt..LowerHex$u20$for$u20$i8$GT$3fmt17h02970fa1c5aaa76cE" @ 1043
;   core::fmt::num::<impl core::fmt::LowerHex for u8>::fmt
    "_ZN4core3fmt3num52_$LT$impl$u20$core..fmt..LowerHex$u20$for$u20$u8$GT$3fmt17h80053e9ab3a4ec91E" @ 1044
;   core::fmt::num::<impl core::fmt::Octal for isize>::fmt
    "_ZN4core3fmt3num52_$LT$impl$u20$core..fmt..Octal$u20$for$u20$isize$GT$3fmt17hf85e236ae3256b20E" @ 1045
;   core::fmt::num::<impl core::fmt::Octal for usize>::fmt
    "_ZN4core3fmt3num52_$LT$impl$u20$core..fmt..Octal$u20$for$u20$usize$GT$3fmt17h28b0173434042d7cE" @ 1046
;   core::fmt::num::<impl core::fmt::UpperHex for i8>::fmt
    "_ZN4core3fmt3num52_$LT$impl$u20$core..fmt..UpperHex$u20$for$u20$i8$GT$3fmt17h350d33d7a5ac64b4E" @ 1047
;   core::fmt::num::<impl core::fmt::UpperHex for u8>::fmt
    "_ZN4core3fmt3num52_$LT$impl$u20$core..fmt..UpperHex$u20$for$u20$u8$GT$3fmt17hd5886e79b54c001dE" @ 1048
;   core::fmt::num::<impl core::fmt::Binary for isize>::fmt
    "_ZN4core3fmt3num53_$LT$impl$u20$core..fmt..Binary$u20$for$u20$isize$GT$3fmt17hee3b02430f2626eaE" @ 1049
;   core::fmt::num::<impl core::fmt::Binary for usize>::fmt
    "_ZN4core3fmt3num53_$LT$impl$u20$core..fmt..Binary$u20$for$u20$usize$GT$3fmt17h47c0fea7d65e37f3E" @ 1050
;   core::fmt::num::<impl core::fmt::Display for i128>::fmt
    "_ZN4core3fmt3num53_$LT$impl$u20$core..fmt..Display$u20$for$u20$i128$GT$3fmt17hdeba78cd2c927abdE" @ 1051
;   core::fmt::num::<impl core::fmt::Display for u128>::fmt
    "_ZN4core3fmt3num53_$LT$impl$u20$core..fmt..Display$u20$for$u20$u128$GT$3fmt17h98b6d7f8edc9e2b6E" @ 1052
;   core::fmt::num::<impl core::fmt::LowerHex for i16>::fmt
    "_ZN4core3fmt3num53_$LT$impl$u20$core..fmt..LowerHex$u20$for$u20$i16$GT$3fmt17hfe78727e942d5ba4E" @ 1053
;   core::fmt::num::<impl core::fmt::LowerHex for i32>::fmt
    "_ZN4core3fmt3num53_$LT$impl$u20$core..fmt..LowerHex$u20$for$u20$i32$GT$3fmt17h637293681a8ca851E" @ 1054
;   core::fmt::num::<impl core::fmt::LowerHex for i64>::fmt
    "_ZN4core3fmt3num53_$LT$impl$u20$core..fmt..LowerHex$u20$for$u20$i64$GT$3fmt17hf7290625f5902230E" @ 1055
;   core::fmt::num::<impl core::fmt::LowerHex for u16>::fmt
    "_ZN4core3fmt3num53_$LT$impl$u20$core..fmt..LowerHex$u20$for$u20$u16$GT$3fmt17h79b85511ebbdafcfE" @ 1056
;   core::fmt::num::<impl core::fmt::LowerHex for u32>::fmt
    "_ZN4core3fmt3num53_$LT$impl$u20$core..fmt..LowerHex$u20$for$u20$u32$GT$3fmt17h3932fa838c7e5792E" @ 1057
;   core::fmt::num::<impl core::fmt::LowerHex for u64>::fmt
    "_ZN4core3fmt3num53_$LT$impl$u20$core..fmt..LowerHex$u20$for$u20$u64$GT$3fmt17h893532bfa5e9aaedE" @ 1058
;   core::fmt::num::<impl core::fmt::UpperHex for i16>::fmt
    "_ZN4core3fmt3num53_$LT$impl$u20$core..fmt..UpperHex$u20$for$u20$i16$GT$3fmt17hcc3ae64c7f15b164E" @ 1059
;   core::fmt::num::<impl core::fmt::UpperHex for i32>::fmt
    "_ZN4core3fmt3num53_$LT$impl$u20$core..fmt..UpperHex$u20$for$u20$i32$GT$3fmt17ha55208858b65b4cdE" @ 1060
;   core::fmt::num::<impl core::fmt::UpperHex for i64>::fmt
    "_ZN4core3fmt3num53_$LT$impl$u20$core..fmt..UpperHex$u20$for$u20$i64$GT$3fmt17h2949928eb39f0317E" @ 1061
;   core::fmt::num::<impl core::fmt::UpperHex for u16>::fmt
    "_ZN4core3fmt3num53_$LT$impl$u20$core..fmt..UpperHex$u20$for$u20$u16$GT$3fmt17h51be39170f3477d8E" @ 1062
;   core::fmt::num::<impl core::fmt::UpperHex for u32>::fmt
    "_ZN4core3fmt3num53_$LT$impl$u20$core..fmt..UpperHex$u20$for$u20$u32$GT$3fmt17ha3be944547e4f106E" @ 1063
;   core::fmt::num::<impl core::fmt::UpperHex for u64>::fmt
    "_ZN4core3fmt3num53_$LT$impl$u20$core..fmt..UpperHex$u20$for$u20$u64$GT$3fmt17h409af31efd8aec29E" @ 1064
;   core::fmt::num::<impl core::fmt::Display for isize>::fmt
    "_ZN4core3fmt3num54_$LT$impl$u20$core..fmt..Display$u20$for$u20$isize$GT$3fmt17h8cbf93541539c16bE" @ 1065
;   core::fmt::num::<impl core::fmt::Display for usize>::fmt
    "_ZN4core3fmt3num54_$LT$impl$u20$core..fmt..Display$u20$for$u20$usize$GT$3fmt17heb6bb77fcdd32085E" @ 1066
;   core::fmt::num::<impl core::fmt::LowerHex for i128>::fmt
    "_ZN4core3fmt3num54_$LT$impl$u20$core..fmt..LowerHex$u20$for$u20$i128$GT$3fmt17h565408d54024da30E" @ 1067
;   core::fmt::num::<impl core::fmt::LowerHex for u128>::fmt
    "_ZN4core3fmt3num54_$LT$impl$u20$core..fmt..LowerHex$u20$for$u20$u128$GT$3fmt17h635227c83dc162c1E" @ 1068
;   core::fmt::num::<impl core::fmt::UpperHex for i128>::fmt
    "_ZN4core3fmt3num54_$LT$impl$u20$core..fmt..UpperHex$u20$for$u20$i128$GT$3fmt17h4ae50b4d3cc795e0E" @ 1069
;   core::fmt::num::<impl core::fmt::UpperHex for u128>::fmt
    "_ZN4core3fmt3num54_$LT$impl$u20$core..fmt..UpperHex$u20$for$u20$u128$GT$3fmt17h786dff7a353677d1E" @ 1070
;   core::fmt::num::<impl core::fmt::LowerHex for isize>::fmt
    "_ZN4core3fmt3num55_$LT$impl$u20$core..fmt..LowerHex$u20$for$u20$isize$GT$3fmt17h4d78f13cd54774bbE" @ 1071
;   core::fmt::num::<impl core::fmt::LowerHex for usize>::fmt
    "_ZN4core3fmt3num55_$LT$impl$u20$core..fmt..LowerHex$u20$for$u20$usize$GT$3fmt17hc7125520b330c228E" @ 1072
;   core::fmt::num::<impl core::fmt::UpperHex for isize>::fmt
    "_ZN4core3fmt3num55_$LT$impl$u20$core..fmt..UpperHex$u20$for$u20$isize$GT$3fmt17h85286754b53fcc0dE" @ 1073
;   core::fmt::num::<impl core::fmt::UpperHex for usize>::fmt
    "_ZN4core3fmt3num55_$LT$impl$u20$core..fmt..UpperHex$u20$for$u20$usize$GT$3fmt17h4e7106cd27658aabE" @ 1074
;   core::fmt::float::<impl core::fmt::Debug for f32>::fmt
    "_ZN4core3fmt5float50_$LT$impl$u20$core..fmt..Debug$u20$for$u20$f32$GT$3fmt17h344867384b3cc7baE" @ 1075
;   core::fmt::float::<impl core::fmt::Debug for f64>::fmt
    "_ZN4core3fmt5float50_$LT$impl$u20$core..fmt..Debug$u20$for$u20$f64$GT$3fmt17h4222ebeb8cd83416E" @ 1076
;   core::fmt::float::<impl core::fmt::Display for f32>::fmt
    "_ZN4core3fmt5float52_$LT$impl$u20$core..fmt..Display$u20$for$u20$f32$GT$3fmt17he8b99e935c884a95E" @ 1077
;   core::fmt::float::<impl core::fmt::Display for f64>::fmt
    "_ZN4core3fmt5float52_$LT$impl$u20$core..fmt..Display$u20$for$u20$f64$GT$3fmt17hc57cba46d348aa12E" @ 1078
;   core::fmt::float::<impl core::fmt::LowerExp for f32>::fmt
    "_ZN4core3fmt5float53_$LT$impl$u20$core..fmt..LowerExp$u20$for$u20$f32$GT$3fmt17h9d7ea6ee3bb5606fE" @ 1079
;   core::fmt::float::<impl core::fmt::LowerExp for f64>::fmt
    "_ZN4core3fmt5float53_$LT$impl$u20$core..fmt..LowerExp$u20$for$u20$f64$GT$3fmt17h3b5661846d25ff82E" @ 1080
;   core::fmt::float::<impl core::fmt::UpperExp for f32>::fmt
    "_ZN4core3fmt5float53_$LT$impl$u20$core..fmt..UpperExp$u20$for$u20$f32$GT$3fmt17h0d209c70959dc758E" @ 1081
;   core::fmt::float::<impl core::fmt::UpperExp for f64>::fmt
    "_ZN4core3fmt5float53_$LT$impl$u20$core..fmt..UpperExp$u20$for$u20$f64$GT$3fmt17hb2cf0ae161f8136dE" @ 1082
;   core::fmt::write
    _ZN4core3fmt5write17h4fa751e8b20ee5c0E @ 1083
;   core::fmt::builders::DebugTuple::field
    _ZN4core3fmt8builders10DebugTuple5field17h7c3c7783a3466144E @ 1084
;   core::fmt::builders::DebugTuple::finish
    _ZN4core3fmt8builders10DebugTuple6finish17h82697cdac521a1f5E @ 1085
;   core::fmt::builders::DebugStruct::field
    _ZN4core3fmt8builders11DebugStruct5field17h9b1f14e4e4612098E @ 1086
;   core::fmt::builders::DebugStruct::finish
    _ZN4core3fmt8builders11DebugStruct6finish17ha5725a676859cbb2E @ 1087
;   core::fmt::builders::debug_map_new
    _ZN4core3fmt8builders13debug_map_new17h6963a1aeb203cf99E @ 1088
;   core::fmt::builders::debug_set_new
    _ZN4core3fmt8builders13debug_set_new17hc3d0e2f0d7b0b887E @ 1089
;   core::fmt::builders::debug_list_new
    _ZN4core3fmt8builders14debug_list_new17h26386558a107079fE @ 1090
;   core::fmt::builders::debug_tuple_new
    _ZN4core3fmt8builders15debug_tuple_new17h7ab40d1420bf81a5E @ 1091
;   core::fmt::builders::debug_struct_new
    _ZN4core3fmt8builders16debug_struct_new17h947f44494c60309cE @ 1092
;   core::fmt::builders::DebugMap::entry
    _ZN4core3fmt8builders8DebugMap5entry17h20ec0761b349ed18E @ 1093
;   core::fmt::builders::DebugMap::finish
    _ZN4core3fmt8builders8DebugMap6finish17h64b4475c28fd1639E @ 1094
;   core::fmt::builders::DebugSet::entry
    _ZN4core3fmt8builders8DebugSet5entry17h6cce8007f2615f15E @ 1095
;   core::fmt::builders::DebugSet::finish
    _ZN4core3fmt8builders8DebugSet6finish17he01ff1cd3fec6322E @ 1096
;   core::fmt::builders::DebugList::entry
    _ZN4core3fmt8builders9DebugList5entry17hb8fc8292e1e0615fE @ 1097
;   core::fmt::builders::DebugList::finish
    _ZN4core3fmt8builders9DebugList6finish17h87f98312c6050eecE @ 1098
;   core::fmt::Formatter::sign_minus
    _ZN4core3fmt9Formatter10sign_minus17h5b1116a03eda6666E @ 1099
;   core::fmt::Formatter::pad_integral
    _ZN4core3fmt9Formatter12pad_integral17h3ace08f9dc23ca5cE @ 1100
;   core::fmt::Formatter::sign_aware_zero_pad
    _ZN4core3fmt9Formatter19sign_aware_zero_pad17hf3681d41283c6de2E @ 1101
;   core::fmt::Formatter::pad
    _ZN4core3fmt9Formatter3pad17hb0d2eef7d2b8b24dE @ 1102
;   core::fmt::Formatter::fill
    _ZN4core3fmt9Formatter4fill17h1dc1649d3ad9777aE @ 1103
;   core::fmt::Formatter::align
    _ZN4core3fmt9Formatter5align17hffda0413c03ce6d0E @ 1104
;   core::fmt::Formatter::flags
    _ZN4core3fmt9Formatter5flags17h398230af3f357725E @ 1105
;   core::fmt::Formatter::width
    _ZN4core3fmt9Formatter5width17h38abde5136922fe7E @ 1106
;   core::fmt::Formatter::alternate
    _ZN4core3fmt9Formatter9alternate17h0ae6bed0555ba092E @ 1107
;   core::fmt::Formatter::precision
    _ZN4core3fmt9Formatter9precision17hb987bc9caedac8e3E @ 1108
;   core::fmt::Formatter::sign_plus
    _ZN4core3fmt9Formatter9sign_plus17h7a2e43beb88cb889E @ 1109
;   core::fmt::Formatter::write_fmt
    _ZN4core3fmt9Formatter9write_fmt17h8f80a39a3010d82eE @ 1110
;   core::fmt::Formatter::write_str
    _ZN4core3fmt9Formatter9write_str17hfb50552334bc4248E @ 1111
;   core::num::ParseIntError::__description
    _ZN4core3num13ParseIntError13__description17hde3c8efe3f38cd8aE @ 1112
;   core::num::TryFromIntError::__description
    _ZN4core3num15TryFromIntError13__description17h2766fd2571e4a74dE @ 1113
;   core::num::<impl i8>::from_str_radix
    _ZN4core3num20_$LT$impl$u20$i8$GT$14from_str_radix17h6a759ff12add3071E @ 1114
;   core::num::<impl u8>::from_str_radix
    _ZN4core3num20_$LT$impl$u20$u8$GT$14from_str_radix17hb6e7d322189f159dE @ 1115
;   core::num::<impl u8>::checked_next_power_of_two
    _ZN4core3num20_$LT$impl$u20$u8$GT$25checked_next_power_of_two17h000119624eb31e7eE @ 1116
;   core::num::<impl i16>::from_str_radix
    _ZN4core3num21_$LT$impl$u20$i16$GT$14from_str_radix17h8d166f3b89619401E @ 1117
;   core::num::<impl i32>::from_str_radix
    _ZN4core3num21_$LT$impl$u20$i32$GT$14from_str_radix17hdc2c0140af98aa59E @ 1118
;   core::num::<impl i64>::from_str_radix
    _ZN4core3num21_$LT$impl$u20$i64$GT$14from_str_radix17hd60d5c283edff42aE @ 1119
;   core::num::<impl u16>::from_str_radix
    _ZN4core3num21_$LT$impl$u20$u16$GT$14from_str_radix17h22139e4fec54a77dE @ 1120
;   core::num::<impl u16>::checked_next_power_of_two
    _ZN4core3num21_$LT$impl$u20$u16$GT$25checked_next_power_of_two17h790b890e7b605510E @ 1121
;   core::num::<impl u32>::from_str_radix
    _ZN4core3num21_$LT$impl$u20$u32$GT$14from_str_radix17h939ace49e5dd0043E @ 1122
;   core::num::<impl u32>::checked_next_power_of_two
    _ZN4core3num21_$LT$impl$u20$u32$GT$25checked_next_power_of_two17h8a4c57dc79efd3a1E @ 1123
;   core::num::<impl u64>::from_str_radix
    _ZN4core3num21_$LT$impl$u20$u64$GT$14from_str_radix17h00af1a636796325fE @ 1124
;   core::num::<impl u64>::checked_next_power_of_two
    _ZN4core3num21_$LT$impl$u20$u64$GT$25checked_next_power_of_two17h013da6e43c897041E @ 1125
;   core::num::<impl i128>::from_str_radix
    _ZN4core3num22_$LT$impl$u20$i128$GT$14from_str_radix17h7cf085c5efcfaa17E @ 1126
;   core::num::<impl u128>::from_str_radix
    _ZN4core3num22_$LT$impl$u20$u128$GT$14from_str_radix17h9dc71c68f7591f57E @ 1127
;   core::num::<impl u128>::checked_next_power_of_two
    _ZN4core3num22_$LT$impl$u20$u128$GT$25checked_next_power_of_two17h32695c0067456759E @ 1128
;   core::num::<impl isize>::from_str_radix
    _ZN4core3num23_$LT$impl$u20$isize$GT$14from_str_radix17ha9f96c516a22a06aE @ 1129
;   core::num::<impl usize>::from_str_radix
    _ZN4core3num23_$LT$impl$u20$usize$GT$14from_str_radix17hd3eb03b0ecf9d227E @ 1130
;   core::num::<impl usize>::checked_next_power_of_two
    _ZN4core3num23_$LT$impl$u20$usize$GT$25checked_next_power_of_two17he5de7f5ea2110ec1E @ 1131
;   core::num::<impl core::str::FromStr for i8>::from_str
    "_ZN4core3num51_$LT$impl$u20$core..str..FromStr$u20$for$u20$i8$GT$8from_str17he137bf854de6a0ffE" @ 1132
;   core::num::<impl core::str::FromStr for u8>::from_str
    "_ZN4core3num51_$LT$impl$u20$core..str..FromStr$u20$for$u20$u8$GT$8from_str17h20548506dfeae76dE" @ 1133
;   core::num::<impl core::str::FromStr for i16>::from_str
    "_ZN4core3num52_$LT$impl$u20$core..str..FromStr$u20$for$u20$i16$GT$8from_str17had0673b966f53529E" @ 1134
;   core::num::<impl core::str::FromStr for i32>::from_str
    "_ZN4core3num52_$LT$impl$u20$core..str..FromStr$u20$for$u20$i32$GT$8from_str17h7d28e683895c5994E" @ 1135
;   core::num::<impl core::str::FromStr for i64>::from_str
    "_ZN4core3num52_$LT$impl$u20$core..str..FromStr$u20$for$u20$i64$GT$8from_str17hb28ca3cc0eaff39fE" @ 1136
;   core::num::<impl core::str::FromStr for u16>::from_str
    "_ZN4core3num52_$LT$impl$u20$core..str..FromStr$u20$for$u20$u16$GT$8from_str17h89744ad05df76decE" @ 1137
;   core::num::<impl core::str::FromStr for u32>::from_str
    "_ZN4core3num52_$LT$impl$u20$core..str..FromStr$u20$for$u20$u32$GT$8from_str17hee7a627bbf38e72cE" @ 1138
;   core::num::<impl core::str::FromStr for u64>::from_str
    "_ZN4core3num52_$LT$impl$u20$core..str..FromStr$u20$for$u20$u64$GT$8from_str17h664987bd463a4a42E" @ 1139
;   core::num::<impl core::str::FromStr for i128>::from_str
    "_ZN4core3num53_$LT$impl$u20$core..str..FromStr$u20$for$u20$i128$GT$8from_str17h3fe59df61ed4b740E" @ 1140
;   core::num::<impl core::str::FromStr for u128>::from_str
    "_ZN4core3num53_$LT$impl$u20$core..str..FromStr$u20$for$u20$u128$GT$8from_str17hbbb5d6ce9a293b08E" @ 1141
;   core::num::<impl core::str::FromStr for isize>::from_str
    "_ZN4core3num54_$LT$impl$u20$core..str..FromStr$u20$for$u20$isize$GT$8from_str17hfca6261cbbb642f8E" @ 1142
;   core::num::<impl core::str::FromStr for usize>::from_str
    "_ZN4core3num54_$LT$impl$u20$core..str..FromStr$u20$for$u20$usize$GT$8from_str17h512ca00f2d9debacE" @ 1143
;   core::num::<impl core::convert::TryFrom<i8> for i8>::try_from
    "_ZN4core3num65_$LT$impl$u20$core..convert..TryFrom$LT$i8$GT$$u20$for$u20$i8$GT$8try_from17hffc5f1c82d696c78E" @ 1144
;   core::num::<impl core::convert::TryFrom<i8> for u8>::try_from
    "_ZN4core3num65_$LT$impl$u20$core..convert..TryFrom$LT$i8$GT$$u20$for$u20$u8$GT$8try_from17hc5537aa7739e6249E" @ 1145
;   core::num::<impl core::convert::TryFrom<u8> for i8>::try_from
    "_ZN4core3num65_$LT$impl$u20$core..convert..TryFrom$LT$u8$GT$$u20$for$u20$i8$GT$8try_from17hab0700fb042f8b19E" @ 1146
;   core::num::<impl core::convert::TryFrom<u8> for u8>::try_from
    "_ZN4core3num65_$LT$impl$u20$core..convert..TryFrom$LT$u8$GT$$u20$for$u20$u8$GT$8try_from17h6dce5e249729bad5E" @ 1147
;   core::num::<impl core::convert::TryFrom<i16> for i8>::try_from
    "_ZN4core3num66_$LT$impl$u20$core..convert..TryFrom$LT$i16$GT$$u20$for$u20$i8$GT$8try_from17h0027b2572a4d80acE" @ 1148
;   core::num::<impl core::convert::TryFrom<i16> for u8>::try_from
    "_ZN4core3num66_$LT$impl$u20$core..convert..TryFrom$LT$i16$GT$$u20$for$u20$u8$GT$8try_from17h8007a797ac109ac9E" @ 1149
;   core::num::<impl core::convert::TryFrom<i32> for i8>::try_from
    "_ZN4core3num66_$LT$impl$u20$core..convert..TryFrom$LT$i32$GT$$u20$for$u20$i8$GT$8try_from17h4b033ec7a0df9c04E" @ 1150
;   core::num::<impl core::convert::TryFrom<i32> for u8>::try_from
    "_ZN4core3num66_$LT$impl$u20$core..convert..TryFrom$LT$i32$GT$$u20$for$u20$u8$GT$8try_from17h5f3249ba4c17600dE" @ 1151
;   core::num::<impl core::convert::TryFrom<i64> for i8>::try_from
    "_ZN4core3num66_$LT$impl$u20$core..convert..TryFrom$LT$i64$GT$$u20$for$u20$i8$GT$8try_from17h079221dd5d9cfbe0E" @ 1152
;   core::num::<impl core::convert::TryFrom<i64> for u8>::try_from
    "_ZN4core3num66_$LT$impl$u20$core..convert..TryFrom$LT$i64$GT$$u20$for$u20$u8$GT$8try_from17hc2e6e8fd3f18b471E" @ 1153
;   core::num::<impl core::convert::TryFrom<i8> for i16>::try_from
    "_ZN4core3num66_$LT$impl$u20$core..convert..TryFrom$LT$i8$GT$$u20$for$u20$i16$GT$8try_from17hd3b16f8f3e2ac9b5E" @ 1154
;   core::num::<impl core::convert::TryFrom<i8> for i32>::try_from
    "_ZN4core3num66_$LT$impl$u20$core..convert..TryFrom$LT$i8$GT$$u20$for$u20$i32$GT$8try_from17h02b414909a4e261cE" @ 1155
;   core::num::<impl core::convert::TryFrom<i8> for i64>::try_from
    "_ZN4core3num66_$LT$impl$u20$core..convert..TryFrom$LT$i8$GT$$u20$for$u20$i64$GT$8try_from17h0e9c6c57d0dfbeffE" @ 1156
;   core::num::<impl core::convert::TryFrom<i8> for u16>::try_from
    "_ZN4core3num66_$LT$impl$u20$core..convert..TryFrom$LT$i8$GT$$u20$for$u20$u16$GT$8try_from17hbd52cd73e6c2e28dE" @ 1157
;   core::num::<impl core::convert::TryFrom<i8> for u32>::try_from
    "_ZN4core3num66_$LT$impl$u20$core..convert..TryFrom$LT$i8$GT$$u20$for$u20$u32$GT$8try_from17ha742755b3cf2f4c5E" @ 1158
;   core::num::<impl core::convert::TryFrom<i8> for u64>::try_from
    "_ZN4core3num66_$LT$impl$u20$core..convert..TryFrom$LT$i8$GT$$u20$for$u20$u64$GT$8try_from17hfa32115c948ab31eE" @ 1159
;   core::num::<impl core::convert::TryFrom<u16> for i8>::try_from
    "_ZN4core3num66_$LT$impl$u20$core..convert..TryFrom$LT$u16$GT$$u20$for$u20$i8$GT$8try_from17hfe2d4e66d53c2dc8E" @ 1160
;   core::num::<impl core::convert::TryFrom<u16> for u8>::try_from
    "_ZN4core3num66_$LT$impl$u20$core..convert..TryFrom$LT$u16$GT$$u20$for$u20$u8$GT$8try_from17h52d75e39967b9764E" @ 1161
;   core::num::<impl core::convert::TryFrom<u32> for i8>::try_from
    "_ZN4core3num66_$LT$impl$u20$core..convert..TryFrom$LT$u32$GT$$u20$for$u20$i8$GT$8try_from17h72cfadd7139472c1E" @ 1162
;   core::num::<impl core::convert::TryFrom<u32> for u8>::try_from
    "_ZN4core3num66_$LT$impl$u20$core..convert..TryFrom$LT$u32$GT$$u20$for$u20$u8$GT$8try_from17h0a61cdcc7714da08E" @ 1163
;   core::num::<impl core::convert::TryFrom<u64> for i8>::try_from
    "_ZN4core3num66_$LT$impl$u20$core..convert..TryFrom$LT$u64$GT$$u20$for$u20$i8$GT$8try_from17he13bc42e1c12dcdaE" @ 1164
;   core::num::<impl core::convert::TryFrom<u64> for u8>::try_from
    "_ZN4core3num66_$LT$impl$u20$core..convert..TryFrom$LT$u64$GT$$u20$for$u20$u8$GT$8try_from17hc8ee4afb835f880aE" @ 1165
;   core::num::<impl core::convert::TryFrom<u8> for i16>::try_from
    "_ZN4core3num66_$LT$impl$u20$core..convert..TryFrom$LT$u8$GT$$u20$for$u20$i16$GT$8try_from17h62cc9cfa9253a0c6E" @ 1166
;   core::num::<impl core::convert::TryFrom<u8> for i32>::try_from
    "_ZN4core3num66_$LT$impl$u20$core..convert..TryFrom$LT$u8$GT$$u20$for$u20$i32$GT$8try_from17h7afe696a13c1d8fbE" @ 1167
;   core::num::<impl core::convert::TryFrom<u8> for i64>::try_from
    "_ZN4core3num66_$LT$impl$u20$core..convert..TryFrom$LT$u8$GT$$u20$for$u20$i64$GT$8try_from17h01845f11c270f95fE" @ 1168
;   core::num::<impl core::convert::TryFrom<u8> for u16>::try_from
    "_ZN4core3num66_$LT$impl$u20$core..convert..TryFrom$LT$u8$GT$$u20$for$u20$u16$GT$8try_from17hb6c0405208d93bedE" @ 1169
;   core::num::<impl core::convert::TryFrom<u8> for u32>::try_from
    "_ZN4core3num66_$LT$impl$u20$core..convert..TryFrom$LT$u8$GT$$u20$for$u20$u32$GT$8try_from17h0cab9361e1ed0cccE" @ 1170
;   core::num::<impl core::convert::TryFrom<u8> for u64>::try_from
    "_ZN4core3num66_$LT$impl$u20$core..convert..TryFrom$LT$u8$GT$$u20$for$u20$u64$GT$8try_from17ha36d4b1ce3f0621aE" @ 1171
;   core::num::<impl core::convert::TryFrom<i128> for i8>::try_from
    "_ZN4core3num67_$LT$impl$u20$core..convert..TryFrom$LT$i128$GT$$u20$for$u20$i8$GT$8try_from17he04dfb5bede6c950E" @ 1172
;   core::num::<impl core::convert::TryFrom<i128> for u8>::try_from
    "_ZN4core3num67_$LT$impl$u20$core..convert..TryFrom$LT$i128$GT$$u20$for$u20$u8$GT$8try_from17h1000c51b11b3be06E" @ 1173
;   core::num::<impl core::convert::TryFrom<i16> for i16>::try_from
    "_ZN4core3num67_$LT$impl$u20$core..convert..TryFrom$LT$i16$GT$$u20$for$u20$i16$GT$8try_from17h36543e548d31445fE" @ 1174
;   core::num::<impl core::convert::TryFrom<i16> for i32>::try_from
    "_ZN4core3num67_$LT$impl$u20$core..convert..TryFrom$LT$i16$GT$$u20$for$u20$i32$GT$8try_from17h4b38ed6b0302cf85E" @ 1175
;   core::num::<impl core::convert::TryFrom<i16> for i64>::try_from
    "_ZN4core3num67_$LT$impl$u20$core..convert..TryFrom$LT$i16$GT$$u20$for$u20$i64$GT$8try_from17h997247592d22ca91E" @ 1176
;   core::num::<impl core::convert::TryFrom<i16> for u16>::try_from
    "_ZN4core3num67_$LT$impl$u20$core..convert..TryFrom$LT$i16$GT$$u20$for$u20$u16$GT$8try_from17h7a9b2aaa740291fcE" @ 1177
;   core::num::<impl core::convert::TryFrom<i16> for u32>::try_from
    "_ZN4core3num67_$LT$impl$u20$core..convert..TryFrom$LT$i16$GT$$u20$for$u20$u32$GT$8try_from17hb493442b3343555bE" @ 1178
;   core::num::<impl core::convert::TryFrom<i16> for u64>::try_from
    "_ZN4core3num67_$LT$impl$u20$core..convert..TryFrom$LT$i16$GT$$u20$for$u20$u64$GT$8try_from17h147502047fd69c57E" @ 1179
;   core::num::<impl core::convert::TryFrom<i32> for i16>::try_from
    "_ZN4core3num67_$LT$impl$u20$core..convert..TryFrom$LT$i32$GT$$u20$for$u20$i16$GT$8try_from17h891f4124e0e32cf2E" @ 1180
;   core::num::<impl core::convert::TryFrom<i32> for i32>::try_from
    "_ZN4core3num67_$LT$impl$u20$core..convert..TryFrom$LT$i32$GT$$u20$for$u20$i32$GT$8try_from17h7b6a4228fbcea2d3E" @ 1181
;   core::num::<impl core::convert::TryFrom<i32> for i64>::try_from
    "_ZN4core3num67_$LT$impl$u20$core..convert..TryFrom$LT$i32$GT$$u20$for$u20$i64$GT$8try_from17h84ef3b30069e77cbE" @ 1182
;   core::num::<impl core::convert::TryFrom<i32> for u16>::try_from
    "_ZN4core3num67_$LT$impl$u20$core..convert..TryFrom$LT$i32$GT$$u20$for$u20$u16$GT$8try_from17hd88c6ed3fe1d3cd5E" @ 1183
;   core::num::<impl core::convert::TryFrom<i32> for u32>::try_from
    "_ZN4core3num67_$LT$impl$u20$core..convert..TryFrom$LT$i32$GT$$u20$for$u20$u32$GT$8try_from17hedc97c9aedd0eca1E" @ 1184
;   core::num::<impl core::convert::TryFrom<i32> for u64>::try_from
    "_ZN4core3num67_$LT$impl$u20$core..convert..TryFrom$LT$i32$GT$$u20$for$u20$u64$GT$8try_from17h94bf24c283b83a0bE" @ 1185
;   core::num::<impl core::convert::TryFrom<i64> for i16>::try_from
    "_ZN4core3num67_$LT$impl$u20$core..convert..TryFrom$LT$i64$GT$$u20$for$u20$i16$GT$8try_from17h8a5ca02195841881E" @ 1186
;   core::num::<impl core::convert::TryFrom<i64> for i32>::try_from
    "_ZN4core3num67_$LT$impl$u20$core..convert..TryFrom$LT$i64$GT$$u20$for$u20$i32$GT$8try_from17h43d94c03120dd5c4E" @ 1187
;   core::num::<impl core::convert::TryFrom<i64> for i64>::try_from
    "_ZN4core3num67_$LT$impl$u20$core..convert..TryFrom$LT$i64$GT$$u20$for$u20$i64$GT$8try_from17h6c814e72d23eb9d4E" @ 1188
;   core::num::<impl core::convert::TryFrom<i64> for u16>::try_from
    "_ZN4core3num67_$LT$impl$u20$core..convert..TryFrom$LT$i64$GT$$u20$for$u20$u16$GT$8try_from17hd2642ee66d38b73bE" @ 1189
;   core::num::<impl core::convert::TryFrom<i64> for u32>::try_from
    "_ZN4core3num67_$LT$impl$u20$core..convert..TryFrom$LT$i64$GT$$u20$for$u20$u32$GT$8try_from17hb489e733da7c6878E" @ 1190
;   core::num::<impl core::convert::TryFrom<i64> for u64>::try_from
    "_ZN4core3num67_$LT$impl$u20$core..convert..TryFrom$LT$i64$GT$$u20$for$u20$u64$GT$8try_from17h6908fcf9e1fb2734E" @ 1191
;   core::num::<impl core::convert::TryFrom<i8> for i128>::try_from
    "_ZN4core3num67_$LT$impl$u20$core..convert..TryFrom$LT$i8$GT$$u20$for$u20$i128$GT$8try_from17h38bd6e72762f909aE" @ 1192
;   core::num::<impl core::convert::TryFrom<i8> for u128>::try_from
    "_ZN4core3num67_$LT$impl$u20$core..convert..TryFrom$LT$i8$GT$$u20$for$u20$u128$GT$8try_from17h58b5bd5adf7ebb4eE" @ 1193
;   core::num::<impl core::convert::TryFrom<u128> for i8>::try_from
    "_ZN4core3num67_$LT$impl$u20$core..convert..TryFrom$LT$u128$GT$$u20$for$u20$i8$GT$8try_from17h91d483579f4f6b66E" @ 1194
;   core::num::<impl core::convert::TryFrom<u128> for u8>::try_from
    "_ZN4core3num67_$LT$impl$u20$core..convert..TryFrom$LT$u128$GT$$u20$for$u20$u8$GT$8try_from17h74bb0407249f0ce8E" @ 1195
;   core::num::<impl core::convert::TryFrom<u16> for i16>::try_from
    "_ZN4core3num67_$LT$impl$u20$core..convert..TryFrom$LT$u16$GT$$u20$for$u20$i16$GT$8try_from17h55b737d452cf5447E" @ 1196
;   core::num::<impl core::convert::TryFrom<u16> for i32>::try_from
    "_ZN4core3num67_$LT$impl$u20$core..convert..TryFrom$LT$u16$GT$$u20$for$u20$i32$GT$8try_from17h1fc2c724f4906a3cE" @ 1197
;   core::num::<impl core::convert::TryFrom<u16> for i64>::try_from
    "_ZN4core3num67_$LT$impl$u20$core..convert..TryFrom$LT$u16$GT$$u20$for$u20$i64$GT$8try_from17h0abf87a2c2d26db5E" @ 1198
;   core::num::<impl core::convert::TryFrom<u16> for u16>::try_from
    "_ZN4core3num67_$LT$impl$u20$core..convert..TryFrom$LT$u16$GT$$u20$for$u20$u16$GT$8try_from17hc8a421d6e0b41098E" @ 1199
;   core::num::<impl core::convert::TryFrom<u16> for u32>::try_from
    "_ZN4core3num67_$LT$impl$u20$core..convert..TryFrom$LT$u16$GT$$u20$for$u20$u32$GT$8try_from17hf53b904d3e09f6c8E" @ 1200
;   core::num::<impl core::convert::TryFrom<u16> for u64>::try_from
    "_ZN4core3num67_$LT$impl$u20$core..convert..TryFrom$LT$u16$GT$$u20$for$u20$u64$GT$8try_from17hf5b8f74076718fb7E" @ 1201
;   core::num::<impl core::convert::TryFrom<u32> for i16>::try_from
    "_ZN4core3num67_$LT$impl$u20$core..convert..TryFrom$LT$u32$GT$$u20$for$u20$i16$GT$8try_from17hf3eba1b8996bb685E" @ 1202
;   core::num::<impl core::convert::TryFrom<u32> for i32>::try_from
    "_ZN4core3num67_$LT$impl$u20$core..convert..TryFrom$LT$u32$GT$$u20$for$u20$i32$GT$8try_from17he7d781d230c10703E" @ 1203
;   core::num::<impl core::convert::TryFrom<u32> for i64>::try_from
    "_ZN4core3num67_$LT$impl$u20$core..convert..TryFrom$LT$u32$GT$$u20$for$u20$i64$GT$8try_from17h0ed8023a11cd859bE" @ 1204
;   core::num::<impl core::convert::TryFrom<u32> for u16>::try_from
    "_ZN4core3num67_$LT$impl$u20$core..convert..TryFrom$LT$u32$GT$$u20$for$u20$u16$GT$8try_from17he3d47a5f52a57cecE" @ 1205
;   core::num::<impl core::convert::TryFrom<u32> for u32>::try_from
    "_ZN4core3num67_$LT$impl$u20$core..convert..TryFrom$LT$u32$GT$$u20$for$u20$u32$GT$8try_from17h8d7e86f2077c0ad1E" @ 1206
;   core::num::<impl core::convert::TryFrom<u32> for u64>::try_from
    "_ZN4core3num67_$LT$impl$u20$core..convert..TryFrom$LT$u32$GT$$u20$for$u20$u64$GT$8try_from17h6508864c1386b905E" @ 1207
;   core::num::<impl core::convert::TryFrom<u64> for i16>::try_from
    "_ZN4core3num67_$LT$impl$u20$core..convert..TryFrom$LT$u64$GT$$u20$for$u20$i16$GT$8try_from17h8174e0bfa37146f0E" @ 1208
;   core::num::<impl core::convert::TryFrom<u64> for i32>::try_from
    "_ZN4core3num67_$LT$impl$u20$core..convert..TryFrom$LT$u64$GT$$u20$for$u20$i32$GT$8try_from17he18cba572bdd272eE" @ 1209
;   core::num::<impl core::convert::TryFrom<u64> for i64>::try_from
    "_ZN4core3num67_$LT$impl$u20$core..convert..TryFrom$LT$u64$GT$$u20$for$u20$i64$GT$8try_from17h7e46be8e5481fea0E" @ 1210
;   core::num::<impl core::convert::TryFrom<u64> for u16>::try_from
    "_ZN4core3num67_$LT$impl$u20$core..convert..TryFrom$LT$u64$GT$$u20$for$u20$u16$GT$8try_from17hc35aa555644d2f2bE" @ 1211
;   core::num::<impl core::convert::TryFrom<u64> for u32>::try_from
    "_ZN4core3num67_$LT$impl$u20$core..convert..TryFrom$LT$u64$GT$$u20$for$u20$u32$GT$8try_from17h61ba20e464efe42aE" @ 1212
;   core::num::<impl core::convert::TryFrom<u64> for u64>::try_from
    "_ZN4core3num67_$LT$impl$u20$core..convert..TryFrom$LT$u64$GT$$u20$for$u20$u64$GT$8try_from17h38b673146c29829cE" @ 1213
;   core::num::<impl core::convert::TryFrom<u8> for i128>::try_from
    "_ZN4core3num67_$LT$impl$u20$core..convert..TryFrom$LT$u8$GT$$u20$for$u20$i128$GT$8try_from17ha69736a93d023962E" @ 1214
;   core::num::<impl core::convert::TryFrom<u8> for u128>::try_from
    "_ZN4core3num67_$LT$impl$u20$core..convert..TryFrom$LT$u8$GT$$u20$for$u20$u128$GT$8try_from17h2d60453488ee7842E" @ 1215
;   core::num::<impl core::convert::TryFrom<i128> for i16>::try_from
    "_ZN4core3num68_$LT$impl$u20$core..convert..TryFrom$LT$i128$GT$$u20$for$u20$i16$GT$8try_from17h96801a603ca30d8cE" @ 1216
;   core::num::<impl core::convert::TryFrom<i128> for i32>::try_from
    "_ZN4core3num68_$LT$impl$u20$core..convert..TryFrom$LT$i128$GT$$u20$for$u20$i32$GT$8try_from17h4cdf74a669ed7b5cE" @ 1217
;   core::num::<impl core::convert::TryFrom<i128> for i64>::try_from
    "_ZN4core3num68_$LT$impl$u20$core..convert..TryFrom$LT$i128$GT$$u20$for$u20$i64$GT$8try_from17h3c0ba22dfaf526deE" @ 1218
;   core::num::<impl core::convert::TryFrom<i128> for u16>::try_from
    "_ZN4core3num68_$LT$impl$u20$core..convert..TryFrom$LT$i128$GT$$u20$for$u20$u16$GT$8try_from17h4e90e128706f0788E" @ 1219
;   core::num::<impl core::convert::TryFrom<i128> for u32>::try_from
    "_ZN4core3num68_$LT$impl$u20$core..convert..TryFrom$LT$i128$GT$$u20$for$u20$u32$GT$8try_from17h9605dbeb06047409E" @ 1220
;   core::num::<impl core::convert::TryFrom<i128> for u64>::try_from
    "_ZN4core3num68_$LT$impl$u20$core..convert..TryFrom$LT$i128$GT$$u20$for$u20$u64$GT$8try_from17hc4aa3482a0bc4f71E" @ 1221
;   core::num::<impl core::convert::TryFrom<i16> for i128>::try_from
    "_ZN4core3num68_$LT$impl$u20$core..convert..TryFrom$LT$i16$GT$$u20$for$u20$i128$GT$8try_from17h07b71fe07a75295eE" @ 1222
;   core::num::<impl core::convert::TryFrom<i16> for u128>::try_from
    "_ZN4core3num68_$LT$impl$u20$core..convert..TryFrom$LT$i16$GT$$u20$for$u20$u128$GT$8try_from17h688810865173840aE" @ 1223
;   core::num::<impl core::convert::TryFrom<i32> for i128>::try_from
    "_ZN4core3num68_$LT$impl$u20$core..convert..TryFrom$LT$i32$GT$$u20$for$u20$i128$GT$8try_from17h06c15f488c2dd5c6E" @ 1224
;   core::num::<impl core::convert::TryFrom<i32> for u128>::try_from
    "_ZN4core3num68_$LT$impl$u20$core..convert..TryFrom$LT$i32$GT$$u20$for$u20$u128$GT$8try_from17h69e9bc1108ec730aE" @ 1225
;   core::num::<impl core::convert::TryFrom<i64> for i128>::try_from
    "_ZN4core3num68_$LT$impl$u20$core..convert..TryFrom$LT$i64$GT$$u20$for$u20$i128$GT$8try_from17hee531e7dbe6ab53bE" @ 1226
;   core::num::<impl core::convert::TryFrom<i64> for u128>::try_from
    "_ZN4core3num68_$LT$impl$u20$core..convert..TryFrom$LT$i64$GT$$u20$for$u20$u128$GT$8try_from17h5f5cdbf9b905fedcE" @ 1227
;   core::num::<impl core::convert::TryFrom<i8> for isize>::try_from
    "_ZN4core3num68_$LT$impl$u20$core..convert..TryFrom$LT$i8$GT$$u20$for$u20$isize$GT$8try_from17h04725247634c8be2E" @ 1228
;   core::num::<impl core::convert::TryFrom<i8> for usize>::try_from
    "_ZN4core3num68_$LT$impl$u20$core..convert..TryFrom$LT$i8$GT$$u20$for$u20$usize$GT$8try_from17h1271a68b5fba54bcE" @ 1229
;   core::num::<impl core::convert::TryFrom<isize> for i8>::try_from
    "_ZN4core3num68_$LT$impl$u20$core..convert..TryFrom$LT$isize$GT$$u20$for$u20$i8$GT$8try_from17hfef5f9d72c27bdd3E" @ 1230
;   core::num::<impl core::convert::TryFrom<isize> for u8>::try_from
    "_ZN4core3num68_$LT$impl$u20$core..convert..TryFrom$LT$isize$GT$$u20$for$u20$u8$GT$8try_from17h8ca0903755646ea5E" @ 1231
;   core::num::<impl core::convert::TryFrom<u128> for i16>::try_from
    "_ZN4core3num68_$LT$impl$u20$core..convert..TryFrom$LT$u128$GT$$u20$for$u20$i16$GT$8try_from17hd565f777a0c3df86E" @ 1232
;   core::num::<impl core::convert::TryFrom<u128> for i32>::try_from
    "_ZN4core3num68_$LT$impl$u20$core..convert..TryFrom$LT$u128$GT$$u20$for$u20$i32$GT$8try_from17hc81e59f19974e4e1E" @ 1233
;   core::num::<impl core::convert::TryFrom<u128> for i64>::try_from
    "_ZN4core3num68_$LT$impl$u20$core..convert..TryFrom$LT$u128$GT$$u20$for$u20$i64$GT$8try_from17hd781cbe7384abb67E" @ 1234
;   core::num::<impl core::convert::TryFrom<u128> for u16>::try_from
    "_ZN4core3num68_$LT$impl$u20$core..convert..TryFrom$LT$u128$GT$$u20$for$u20$u16$GT$8try_from17hd71ad26a64b3ac42E" @ 1235
;   core::num::<impl core::convert::TryFrom<u128> for u32>::try_from
    "_ZN4core3num68_$LT$impl$u20$core..convert..TryFrom$LT$u128$GT$$u20$for$u20$u32$GT$8try_from17h74fc86d7ff5ebb8aE" @ 1236
;   core::num::<impl core::convert::TryFrom<u128> for u64>::try_from
    "_ZN4core3num68_$LT$impl$u20$core..convert..TryFrom$LT$u128$GT$$u20$for$u20$u64$GT$8try_from17hb1505b8b8d833558E" @ 1237
;   core::num::<impl core::convert::TryFrom<u16> for i128>::try_from
    "_ZN4core3num68_$LT$impl$u20$core..convert..TryFrom$LT$u16$GT$$u20$for$u20$i128$GT$8try_from17h6823cde7c701cec6E" @ 1238
;   core::num::<impl core::convert::TryFrom<u16> for u128>::try_from
    "_ZN4core3num68_$LT$impl$u20$core..convert..TryFrom$LT$u16$GT$$u20$for$u20$u128$GT$8try_from17hac60b9790e09c24fE" @ 1239
;   core::num::<impl core::convert::TryFrom<u32> for i128>::try_from
    "_ZN4core3num68_$LT$impl$u20$core..convert..TryFrom$LT$u32$GT$$u20$for$u20$i128$GT$8try_from17h96ba57550c83c31dE" @ 1240
;   core::num::<impl core::convert::TryFrom<u32> for u128>::try_from
    "_ZN4core3num68_$LT$impl$u20$core..convert..TryFrom$LT$u32$GT$$u20$for$u20$u128$GT$8try_from17h31361a6482e23b2fE" @ 1241
;   core::num::<impl core::convert::TryFrom<u64> for i128>::try_from
    "_ZN4core3num68_$LT$impl$u20$core..convert..TryFrom$LT$u64$GT$$u20$for$u20$i128$GT$8try_from17h80537ee16beb877cE" @ 1242
;   core::num::<impl core::convert::TryFrom<u64> for u128>::try_from
    "_ZN4core3num68_$LT$impl$u20$core..convert..TryFrom$LT$u64$GT$$u20$for$u20$u128$GT$8try_from17hd28a0ba957bb5671E" @ 1243
;   core::num::<impl core::convert::TryFrom<u8> for isize>::try_from
    "_ZN4core3num68_$LT$impl$u20$core..convert..TryFrom$LT$u8$GT$$u20$for$u20$isize$GT$8try_from17h3e656c7082ee03c3E" @ 1244
;   core::num::<impl core::convert::TryFrom<u8> for usize>::try_from
    "_ZN4core3num68_$LT$impl$u20$core..convert..TryFrom$LT$u8$GT$$u20$for$u20$usize$GT$8try_from17hab2b00f90ac04a74E" @ 1245
;   core::num::<impl core::convert::TryFrom<usize> for i8>::try_from
    "_ZN4core3num68_$LT$impl$u20$core..convert..TryFrom$LT$usize$GT$$u20$for$u20$i8$GT$8try_from17h444c06f176ae78f6E" @ 1246
;   core::num::<impl core::convert::TryFrom<usize> for u8>::try_from
    "_ZN4core3num68_$LT$impl$u20$core..convert..TryFrom$LT$usize$GT$$u20$for$u20$u8$GT$8try_from17hdb997ef802752ab0E" @ 1247
;   core::num::<impl core::convert::TryFrom<i128> for i128>::try_from
    "_ZN4core3num69_$LT$impl$u20$core..convert..TryFrom$LT$i128$GT$$u20$for$u20$i128$GT$8try_from17hd56489023b48bba5E" @ 1248
;   core::num::<impl core::convert::TryFrom<i128> for u128>::try_from
    "_ZN4core3num69_$LT$impl$u20$core..convert..TryFrom$LT$i128$GT$$u20$for$u20$u128$GT$8try_from17h4bf591884936bd57E" @ 1249
;   core::num::<impl core::convert::TryFrom<i16> for isize>::try_from
    "_ZN4core3num69_$LT$impl$u20$core..convert..TryFrom$LT$i16$GT$$u20$for$u20$isize$GT$8try_from17hccd857a7abc503edE" @ 1250
;   core::num::<impl core::convert::TryFrom<i16> for usize>::try_from
    "_ZN4core3num69_$LT$impl$u20$core..convert..TryFrom$LT$i16$GT$$u20$for$u20$usize$GT$8try_from17hb8c3e82ecbfd1906E" @ 1251
;   core::num::<impl core::convert::TryFrom<i32> for isize>::try_from
    "_ZN4core3num69_$LT$impl$u20$core..convert..TryFrom$LT$i32$GT$$u20$for$u20$isize$GT$8try_from17h656c18a9555f1fcdE" @ 1252
;   core::num::<impl core::convert::TryFrom<i32> for usize>::try_from
    "_ZN4core3num69_$LT$impl$u20$core..convert..TryFrom$LT$i32$GT$$u20$for$u20$usize$GT$8try_from17h604d2b097635603aE" @ 1253
;   core::num::<impl core::convert::TryFrom<i64> for isize>::try_from
    "_ZN4core3num69_$LT$impl$u20$core..convert..TryFrom$LT$i64$GT$$u20$for$u20$isize$GT$8try_from17h304cbbaf6dc439aaE" @ 1254
;   core::num::<impl core::convert::TryFrom<i64> for usize>::try_from
    "_ZN4core3num69_$LT$impl$u20$core..convert..TryFrom$LT$i64$GT$$u20$for$u20$usize$GT$8try_from17hc7ff906343111a64E" @ 1255
;   core::num::<impl core::convert::TryFrom<isize> for i16>::try_from
    "_ZN4core3num69_$LT$impl$u20$core..convert..TryFrom$LT$isize$GT$$u20$for$u20$i16$GT$8try_from17hb99f68f7236cef64E" @ 1256
;   core::num::<impl core::convert::TryFrom<isize> for i32>::try_from
    "_ZN4core3num69_$LT$impl$u20$core..convert..TryFrom$LT$isize$GT$$u20$for$u20$i32$GT$8try_from17h7771b24b4631ee05E" @ 1257
;   core::num::<impl core::convert::TryFrom<isize> for i64>::try_from
    "_ZN4core3num69_$LT$impl$u20$core..convert..TryFrom$LT$isize$GT$$u20$for$u20$i64$GT$8try_from17hc95349143e896456E" @ 1258
;   core::num::<impl core::convert::TryFrom<isize> for u16>::try_from
    "_ZN4core3num69_$LT$impl$u20$core..convert..TryFrom$LT$isize$GT$$u20$for$u20$u16$GT$8try_from17he4a430fced0aa181E" @ 1259
;   core::num::<impl core::convert::TryFrom<isize> for u32>::try_from
    "_ZN4core3num69_$LT$impl$u20$core..convert..TryFrom$LT$isize$GT$$u20$for$u20$u32$GT$8try_from17h61b2e75ef298970aE" @ 1260
;   core::num::<impl core::convert::TryFrom<isize> for u64>::try_from
    "_ZN4core3num69_$LT$impl$u20$core..convert..TryFrom$LT$isize$GT$$u20$for$u20$u64$GT$8try_from17hc42f7fcd21fb7cfaE" @ 1261
;   core::num::<impl core::convert::TryFrom<u128> for i128>::try_from
    "_ZN4core3num69_$LT$impl$u20$core..convert..TryFrom$LT$u128$GT$$u20$for$u20$i128$GT$8try_from17h162449bbc071ccdbE" @ 1262
;   core::num::<impl core::convert::TryFrom<u128> for u128>::try_from
    "_ZN4core3num69_$LT$impl$u20$core..convert..TryFrom$LT$u128$GT$$u20$for$u20$u128$GT$8try_from17h3572e733356b5848E" @ 1263
;   core::num::<impl core::convert::TryFrom<u16> for isize>::try_from
    "_ZN4core3num69_$LT$impl$u20$core..convert..TryFrom$LT$u16$GT$$u20$for$u20$isize$GT$8try_from17hc3ecfddcec717e28E" @ 1264
;   core::num::<impl core::convert::TryFrom<u16> for usize>::try_from
    "_ZN4core3num69_$LT$impl$u20$core..convert..TryFrom$LT$u16$GT$$u20$for$u20$usize$GT$8try_from17h9c02d0fd4f6ee087E" @ 1265
;   core::num::<impl core::convert::TryFrom<u32> for isize>::try_from
    "_ZN4core3num69_$LT$impl$u20$core..convert..TryFrom$LT$u32$GT$$u20$for$u20$isize$GT$8try_from17h142957aaa3a0905cE" @ 1266
;   core::num::<impl core::convert::TryFrom<u32> for usize>::try_from
    "_ZN4core3num69_$LT$impl$u20$core..convert..TryFrom$LT$u32$GT$$u20$for$u20$usize$GT$8try_from17hd86b3b8d62107105E" @ 1267
;   core::num::<impl core::convert::TryFrom<u64> for isize>::try_from
    "_ZN4core3num69_$LT$impl$u20$core..convert..TryFrom$LT$u64$GT$$u20$for$u20$isize$GT$8try_from17h46fc577607a8e30eE" @ 1268
;   core::num::<impl core::convert::TryFrom<u64> for usize>::try_from
    "_ZN4core3num69_$LT$impl$u20$core..convert..TryFrom$LT$u64$GT$$u20$for$u20$usize$GT$8try_from17hfa1ab3e3cb6e03d1E" @ 1269
;   core::num::<impl core::convert::TryFrom<usize> for i16>::try_from
    "_ZN4core3num69_$LT$impl$u20$core..convert..TryFrom$LT$usize$GT$$u20$for$u20$i16$GT$8try_from17he6b8ff9f0babd868E" @ 1270
;   core::num::<impl core::convert::TryFrom<usize> for i32>::try_from
    "_ZN4core3num69_$LT$impl$u20$core..convert..TryFrom$LT$usize$GT$$u20$for$u20$i32$GT$8try_from17h9f376cae165f2d10E" @ 1271
;   core::num::<impl core::convert::TryFrom<usize> for i64>::try_from
    "_ZN4core3num69_$LT$impl$u20$core..convert..TryFrom$LT$usize$GT$$u20$for$u20$i64$GT$8try_from17hf2350c8326e7c3e1E" @ 1272
;   core::num::<impl core::convert::TryFrom<usize> for u16>::try_from
    "_ZN4core3num69_$LT$impl$u20$core..convert..TryFrom$LT$usize$GT$$u20$for$u20$u16$GT$8try_from17habcc40c786273bb4E" @ 1273
;   core::num::<impl core::convert::TryFrom<usize> for u32>::try_from
    "_ZN4core3num69_$LT$impl$u20$core..convert..TryFrom$LT$usize$GT$$u20$for$u20$u32$GT$8try_from17hdf5838be7ceeea5eE" @ 1274
;   core::num::<impl core::convert::TryFrom<usize> for u64>::try_from
    "_ZN4core3num69_$LT$impl$u20$core..convert..TryFrom$LT$usize$GT$$u20$for$u20$u64$GT$8try_from17h9347172ee7ab25a6E" @ 1275
;   core::num::bignum::tests::Big8x3::bit_length
    _ZN4core3num6bignum5tests6Big8x310bit_length17h8f84b875196ef1fdE @ 1276
;   core::num::bignum::tests::Big8x3::from_small
    _ZN4core3num6bignum5tests6Big8x310from_small17h660d1e525022438fE @ 1277
;   core::num::bignum::tests::Big8x3::mul_digits
    _ZN4core3num6bignum5tests6Big8x310mul_digits17h0c05794e63dfcd04E @ 1278
;   core::num::bignum::tests::Big8x3::div_rem_small
    _ZN4core3num6bignum5tests6Big8x313div_rem_small17had8375fd0185a7fdE @ 1279
;   core::num::bignum::tests::Big8x3::add
    _ZN4core3num6bignum5tests6Big8x33add17h7e460180a0165714E @ 1280
;   core::num::bignum::tests::Big8x3::sub
    _ZN4core3num6bignum5tests6Big8x33sub17hd4c912ed0c550e3bE @ 1281
;   core::num::bignum::tests::Big8x3::digits
    _ZN4core3num6bignum5tests6Big8x36digits17h3b33f59149fc339bE @ 1282
;   core::num::bignum::tests::Big8x3::div_rem
    _ZN4core3num6bignum5tests6Big8x37div_rem17hdaa2491493d5dd2eE @ 1283
;   core::num::bignum::tests::Big8x3::get_bit
    _ZN4core3num6bignum5tests6Big8x37get_bit17h28fb34c3b8622185E @ 1284
;   core::num::bignum::tests::Big8x3::is_zero
    _ZN4core3num6bignum5tests6Big8x37is_zero17ha9fc145582e12f2bE @ 1285
;   core::num::bignum::tests::Big8x3::from_u64
    _ZN4core3num6bignum5tests6Big8x38from_u6417he66822db379eed8cE @ 1286
;   core::num::bignum::tests::Big8x3::mul_pow2
    _ZN4core3num6bignum5tests6Big8x38mul_pow217h6d31a5b912949f72E @ 1287
;   core::num::bignum::tests::Big8x3::mul_pow5
    _ZN4core3num6bignum5tests6Big8x38mul_pow517heec5390cc384fa2cE @ 1288
;   core::num::bignum::tests::Big8x3::add_small
    _ZN4core3num6bignum5tests6Big8x39add_small17h5083a7c53cfaf257E @ 1289
;   core::num::bignum::tests::Big8x3::mul_small
    _ZN4core3num6bignum5tests6Big8x39mul_small17h7b848b02ae486ea6E @ 1290
;   core::num::bignum::Big32x40::bit_length
    _ZN4core3num6bignum8Big32x4010bit_length17hf5ede8c9653e6333E @ 1291
;   core::num::bignum::Big32x40::from_small
    _ZN4core3num6bignum8Big32x4010from_small17h025260ef19da317eE @ 1292
;   core::num::bignum::Big32x40::mul_digits
    _ZN4core3num6bignum8Big32x4010mul_digits17h942b2235b90454b5E @ 1293
;   core::num::bignum::Big32x40::div_rem_small
    _ZN4core3num6bignum8Big32x4013div_rem_small17h4f13da75ad8109eaE @ 1294
;   core::num::bignum::Big32x40::add
    _ZN4core3num6bignum8Big32x403add17h2203556d48a4e8faE @ 1295
;   core::num::bignum::Big32x40::sub
    _ZN4core3num6bignum8Big32x403sub17hcd19803995746001E @ 1296
;   core::num::bignum::Big32x40::digits
    _ZN4core3num6bignum8Big32x406digits17h1f91a14807f63b19E @ 1297
;   core::num::bignum::Big32x40::div_rem
    _ZN4core3num6bignum8Big32x407div_rem17h059a6b1637bffdb7E @ 1298
;   core::num::bignum::Big32x40::get_bit
    _ZN4core3num6bignum8Big32x407get_bit17hc8ddf15ad6981241E @ 1299
;   core::num::bignum::Big32x40::is_zero
    _ZN4core3num6bignum8Big32x407is_zero17h5049a7a33de434a9E @ 1300
;   core::num::bignum::Big32x40::from_u64
    _ZN4core3num6bignum8Big32x408from_u6417h9bdf92e77736743aE @ 1301
;   core::num::bignum::Big32x40::mul_pow2
    _ZN4core3num6bignum8Big32x408mul_pow217hb164f5712246136dE @ 1302
;   core::num::bignum::Big32x40::mul_pow5
    _ZN4core3num6bignum8Big32x408mul_pow517h8ab96f29fe0c3dccE @ 1303
;   core::num::bignum::Big32x40::add_small
    _ZN4core3num6bignum8Big32x409add_small17h3205365dcc3929d5E @ 1304
;   core::num::bignum::Big32x40::mul_small
    _ZN4core3num6bignum8Big32x409mul_small17h065db9f35196a241E @ 1305
;   core::num::<impl core::convert::TryFrom<i128> for isize>::try_from
    "_ZN4core3num70_$LT$impl$u20$core..convert..TryFrom$LT$i128$GT$$u20$for$u20$isize$GT$8try_from17h6aae636d4ff5d2d4E" @ 1306
;   core::num::<impl core::convert::TryFrom<i128> for usize>::try_from
    "_ZN4core3num70_$LT$impl$u20$core..convert..TryFrom$LT$i128$GT$$u20$for$u20$usize$GT$8try_from17hab9b9a4009b2b413E" @ 1307
;   core::num::<impl core::convert::TryFrom<isize> for i128>::try_from
    "_ZN4core3num70_$LT$impl$u20$core..convert..TryFrom$LT$isize$GT$$u20$for$u20$i128$GT$8try_from17hda793c33ccb59531E" @ 1308
;   core::num::<impl core::convert::TryFrom<isize> for u128>::try_from
    "_ZN4core3num70_$LT$impl$u20$core..convert..TryFrom$LT$isize$GT$$u20$for$u20$u128$GT$8try_from17h369e665372e8cffdE" @ 1309
;   core::num::<impl core::convert::TryFrom<u128> for isize>::try_from
    "_ZN4core3num70_$LT$impl$u20$core..convert..TryFrom$LT$u128$GT$$u20$for$u20$isize$GT$8try_from17hb3a6f5bb218395d6E" @ 1310
;   core::num::<impl core::convert::TryFrom<u128> for usize>::try_from
    "_ZN4core3num70_$LT$impl$u20$core..convert..TryFrom$LT$u128$GT$$u20$for$u20$usize$GT$8try_from17habfe6fa113f8841aE" @ 1311
;   core::num::<impl core::convert::TryFrom<usize> for i128>::try_from
    "_ZN4core3num70_$LT$impl$u20$core..convert..TryFrom$LT$usize$GT$$u20$for$u20$i128$GT$8try_from17h2ea6979013e281b1E" @ 1312
;   core::num::<impl core::convert::TryFrom<usize> for u128>::try_from
    "_ZN4core3num70_$LT$impl$u20$core..convert..TryFrom$LT$usize$GT$$u20$for$u20$u128$GT$8try_from17hed2196fe6ded2972E" @ 1313
;   core::num::<impl core::convert::TryFrom<isize> for isize>::try_from
    "_ZN4core3num71_$LT$impl$u20$core..convert..TryFrom$LT$isize$GT$$u20$for$u20$isize$GT$8try_from17h357399460fc69549E" @ 1314
;   core::num::<impl core::convert::TryFrom<isize> for usize>::try_from
    "_ZN4core3num71_$LT$impl$u20$core..convert..TryFrom$LT$isize$GT$$u20$for$u20$usize$GT$8try_from17h3a89364b5868891bE" @ 1315
;   core::num::<impl core::convert::TryFrom<usize> for isize>::try_from
    "_ZN4core3num71_$LT$impl$u20$core..convert..TryFrom$LT$usize$GT$$u20$for$u20$isize$GT$8try_from17h1774bdf22ed8aeadE" @ 1316
;   core::num::<impl core::convert::TryFrom<usize> for usize>::try_from
    "_ZN4core3num71_$LT$impl$u20$core..convert..TryFrom$LT$usize$GT$$u20$for$u20$usize$GT$8try_from17h1b3d34f7088a2ab6E" @ 1317
;   core::num::dec2flt::pfe_invalid
    _ZN4core3num7dec2flt11pfe_invalid17hd11f6de7ee80433dE @ 1318
;   core::num::dec2flt::extract_sign
    _ZN4core3num7dec2flt12extract_sign17hae5b25f71f38e91eE @ 1319
;   core::num::dec2flt::ParseFloatError::__description
    _ZN4core3num7dec2flt15ParseFloatError13__description17hb2e8c8318355b532E @ 1320
;   core::num::dec2flt::bound_intermediate_digits
    _ZN4core3num7dec2flt25bound_intermediate_digits17h0001d6934e494371E @ 1321
;   core::num::dec2flt::num::digits_to_big
    _ZN4core3num7dec2flt3num13digits_to_big17h78ad36f70d9cfee1E @ 1322
;   core::num::dec2flt::num::compare_with_half_ulp
    _ZN4core3num7dec2flt3num21compare_with_half_ulp17h1289b423214e1942E @ 1323
;   core::num::dec2flt::num::to_u64
    _ZN4core3num7dec2flt3num6to_u6417hca304ec28f3e89b4E @ 1324
;   core::num::dec2flt::num::get_bits
    _ZN4core3num7dec2flt3num8get_bits17hee4765fff8809eceE @ 1325
;   core::num::dec2flt::parse::parse_decimal
    _ZN4core3num7dec2flt5parse13parse_decimal17h0499560584cc45e5E @ 1326
;   core::num::dec2flt::parse::Decimal::new
    _ZN4core3num7dec2flt5parse7Decimal3new17h788595ac4c384602E @ 1327
;   core::num::dec2flt::rawfp::next_float::_MSG_FILE_LINE
    _ZN4core3num7dec2flt5rawfp10next_float14_MSG_FILE_LINE17h93cdbc654731c28eE @ 1328 DATA
;   core::num::dec2flt::rawfp::prev_float::_MSG_FILE_LINE
    _ZN4core3num7dec2flt5rawfp10prev_float14_MSG_FILE_LINE17h69ba665dd92caf62E @ 1329 DATA
;   core::num::dec2flt::rawfp::prev_float::_MSG_FILE_LINE
    _ZN4core3num7dec2flt5rawfp10prev_float14_MSG_FILE_LINE17h69e6d06070d6ff58E @ 1330 DATA
;   core::num::dec2flt::rawfp::prev_float::_MSG_FILE_LINE
    _ZN4core3num7dec2flt5rawfp10prev_float14_MSG_FILE_LINE17h9de1c81d95b4218eE @ 1331 DATA
;   core::num::dec2flt::rawfp::prev_float::_MSG_FILE_LINE
    _ZN4core3num7dec2flt5rawfp10prev_float14_MSG_FILE_LINE17hdb9a979e712e1cdaE @ 1332 DATA
;   core::num::dec2flt::rawfp::fp_to_float::_FILE_LINE
    _ZN4core3num7dec2flt5rawfp11fp_to_float10_FILE_LINE17h15dd47cc4d24b43dE @ 1333 DATA
;   core::num::dec2flt::rawfp::fp_to_float::_FILE_LINE
    _ZN4core3num7dec2flt5rawfp11fp_to_float10_FILE_LINE17hca977d8c93845bf6E @ 1334 DATA
;   core::num::dec2flt::rawfp::fp_to_float::__STATIC_FMTSTR
    _ZN4core3num7dec2flt5rawfp11fp_to_float15__STATIC_FMTSTR17h13c9e7f87606a36fE @ 1335 DATA
;   core::num::dec2flt::rawfp::fp_to_float::__STATIC_FMTSTR
    _ZN4core3num7dec2flt5rawfp11fp_to_float15__STATIC_FMTSTR17hee166fa56aa3f975E @ 1336 DATA
;   core::num::dec2flt::rawfp::round_normal::_FILE_LINE
    _ZN4core3num7dec2flt5rawfp12round_normal10_FILE_LINE17hd807b2dc09ac3acbE @ 1337 DATA
;   core::num::dec2flt::rawfp::round_normal::__STATIC_FMTSTR
    _ZN4core3num7dec2flt5rawfp12round_normal15__STATIC_FMTSTR17h191ed48a8677b8feE @ 1338 DATA
;   core::num::dec2flt::rawfp::encode_normal::_MSG_FILE_LINE
    _ZN4core3num7dec2flt5rawfp13encode_normal14_MSG_FILE_LINE17h50db72a4b16eae97E @ 1339 DATA
;   core::num::dec2flt::rawfp::encode_normal::_MSG_FILE_LINE
    _ZN4core3num7dec2flt5rawfp13encode_normal14_MSG_FILE_LINE17h7e542665da7dc62aE @ 1340 DATA
;   core::num::dec2flt::rawfp::encode_subnormal::_MSG_FILE_LINE
    _ZN4core3num7dec2flt5rawfp16encode_subnormal14_MSG_FILE_LINE17h48f6657a95264d8cE @ 1341 DATA
;   core::num::dec2flt::rawfp::Unpacked::new
    _ZN4core3num7dec2flt5rawfp8Unpacked3new17hf7560db6efefb5c5E @ 1342
;   core::num::dec2flt::rawfp::big_to_fp
    _ZN4core3num7dec2flt5rawfp9big_to_fp17h60cbdcd15285cce4E @ 1343
;   core::num::dec2flt::algorithm::make_ratio
    _ZN4core3num7dec2flt9algorithm10make_ratio17h79ab6ceb1a30eb0eE @ 1344
;   core::num::dec2flt::algorithm::quick_start::_MSG_FILE_LINE
    _ZN4core3num7dec2flt9algorithm11quick_start14_MSG_FILE_LINE17h5abcce50534e70caE @ 1345 DATA
;   core::num::dec2flt::algorithm::power_of_ten
    _ZN4core3num7dec2flt9algorithm12power_of_ten17ha7bac16e973e859fE @ 1346
;   core::num::dec2flt::pfe_empty
    _ZN4core3num7dec2flt9pfe_empty17h3a3ab37f4c2f6620E @ 1347
;   core::num::flt2dec::determine_sign
    _ZN4core3num7flt2dec14determine_sign17h808ed1cdafe1a2e6E @ 1348
;   core::num::flt2dec::to_shortest_str::_MSG_FILE_LINE
    _ZN4core3num7flt2dec15to_shortest_str14_MSG_FILE_LINE17h31e1bb4323310a88E @ 1349 DATA
;   core::num::flt2dec::to_shortest_str::_MSG_FILE_LINE
    _ZN4core3num7flt2dec15to_shortest_str14_MSG_FILE_LINE17h88c85939f3361d68E @ 1350 DATA
;   core::num::flt2dec::to_exact_exp_str::_MSG_FILE_LINE
    _ZN4core3num7flt2dec16to_exact_exp_str14_MSG_FILE_LINE17h3ae3b6c89487346dE @ 1351 DATA
;   core::num::flt2dec::to_exact_exp_str::_MSG_FILE_LINE
    _ZN4core3num7flt2dec16to_exact_exp_str14_MSG_FILE_LINE17hc9036eac68e69761E @ 1352 DATA
;   core::num::flt2dec::to_exact_exp_str::_MSG_FILE_LINE
    _ZN4core3num7flt2dec16to_exact_exp_str14_MSG_FILE_LINE17hc9c125fa34d6740aE @ 1353 DATA
;   core::num::flt2dec::digits_to_dec_str
    _ZN4core3num7flt2dec17digits_to_dec_str17hb6e0f5c1d2ac8e5cE @ 1354
;   core::num::flt2dec::digits_to_exp_str
    _ZN4core3num7flt2dec17digits_to_exp_str17h4d2d70b8c9db2948E @ 1355
;   core::num::flt2dec::to_exact_fixed_str::_FILE_LINE
    _ZN4core3num7flt2dec18to_exact_fixed_str10_FILE_LINE17h704589b526cac680E @ 1356 DATA
;   core::num::flt2dec::to_exact_fixed_str::_MSG_FILE_LINE
    _ZN4core3num7flt2dec18to_exact_fixed_str14_MSG_FILE_LINE17h51d300e9399d0d4cE @ 1357 DATA
;   core::num::flt2dec::to_exact_fixed_str::_MSG_FILE_LINE
    _ZN4core3num7flt2dec18to_exact_fixed_str14_MSG_FILE_LINE17hd98600416792b59fE @ 1358 DATA
;   core::num::flt2dec::to_exact_fixed_str::__STATIC_FMTSTR
    _ZN4core3num7flt2dec18to_exact_fixed_str15__STATIC_FMTSTR17h816fd755eeb63ff4E @ 1359 DATA
;   core::num::flt2dec::to_shortest_exp_str::_MSG_FILE_LINE
    _ZN4core3num7flt2dec19to_shortest_exp_str14_MSG_FILE_LINE17h1ab9c610134a8e5fE @ 1360 DATA
;   core::num::flt2dec::to_shortest_exp_str::_MSG_FILE_LINE
    _ZN4core3num7flt2dec19to_shortest_exp_str14_MSG_FILE_LINE17h22ac11507e751f61E @ 1361 DATA
;   core::num::flt2dec::to_shortest_exp_str::_MSG_FILE_LINE
    _ZN4core3num7flt2dec19to_shortest_exp_str14_MSG_FILE_LINE17h788479a50c72d15fE @ 1362 DATA
;   core::num::flt2dec::estimate_max_buf_len
    _ZN4core3num7flt2dec20estimate_max_buf_len17h4078d973c49433c0E @ 1363
;   core::num::flt2dec::Part::len
    _ZN4core3num7flt2dec4Part3len17h4d4a93d9edef6d20E @ 1364
;   core::num::flt2dec::Part::write
    _ZN4core3num7flt2dec4Part5write17hd1d2f2957794a68dE @ 1365
;   core::num::flt2dec::round_up
    _ZN4core3num7flt2dec8round_up17h21b19e50c07e6540E @ 1366
;   core::num::flt2dec::strategy::grisu::CACHED_POW10
    _ZN4core3num7flt2dec8strategy5grisu12CACHED_POW1017h3a84443fdd5b6396E @ 1367 DATA
;   core::num::flt2dec::strategy::grisu::cached_power
    _ZN4core3num7flt2dec8strategy5grisu12cached_power17hd56b418c5b6f2a39E @ 1368
;   core::num::flt2dec::strategy::grisu::format_exact
    _ZN4core3num7flt2dec8strategy5grisu12format_exact17hf3f2c3cd5fd6186cE @ 1369
;   core::num::flt2dec::strategy::grisu::format_shortest
    _ZN4core3num7flt2dec8strategy5grisu15format_shortest17h72c71f9f274a1af2E @ 1370
;   core::num::flt2dec::strategy::grisu::format_exact_opt
    _ZN4core3num7flt2dec8strategy5grisu16format_exact_opt17hf72601c58213ce2cE @ 1371
;   core::num::flt2dec::strategy::grisu::format_shortest_opt
    _ZN4core3num7flt2dec8strategy5grisu19format_shortest_opt17h74cd08e1a16e6d74E @ 1372
;   core::num::flt2dec::strategy::grisu::max_pow10_no_more_than
    _ZN4core3num7flt2dec8strategy5grisu22max_pow10_no_more_than17he60db2d127c4fb31E @ 1373
;   core::num::flt2dec::strategy::dragon::format_exact
    _ZN4core3num7flt2dec8strategy6dragon12format_exact17h46557892b50965a7E @ 1374
;   core::num::flt2dec::strategy::dragon::format_shortest
    _ZN4core3num7flt2dec8strategy6dragon15format_shortest17h8214e9ad7c41af95E @ 1375
;   core::num::flt2dec::strategy::dragon::mul_pow10
    _ZN4core3num7flt2dec8strategy6dragon9mul_pow1017h20ae6d985c0d79cfE @ 1376
;   core::num::flt2dec::Formatted::len
    _ZN4core3num7flt2dec9Formatted3len17hab9a83da1f661ce0E @ 1377
;   core::num::flt2dec::Formatted::write
    _ZN4core3num7flt2dec9Formatted5write17he0388cd072c52a9fE @ 1378
;   core::num::flt2dec::estimator::estimate_scaling_factor
    _ZN4core3num7flt2dec9estimator23estimate_scaling_factor17hd725ca35f2acb4a4E @ 1379
;   core::num::diy_float::Fp::normalize_to
    _ZN4core3num9diy_float2Fp12normalize_to17h0cc9e70e5711d81eE @ 1380
;   core::num::diy_float::Fp::mul
    _ZN4core3num9diy_float2Fp3mul17h0ba4a44727a9f74cE @ 1381
;   core::num::diy_float::Fp::normalize
    _ZN4core3num9diy_float2Fp9normalize17h39f11fb00a2c4381E @ 1382
;   core::str::from_utf8_mut
    _ZN4core3str13from_utf8_mut17hda7b51e34c7ce8fbE @ 1383
;   core::str::UTF8_CHAR_WIDTH
    _ZN4core3str15UTF8_CHAR_WIDTH17h7f72271d81cd62c3E @ 1384 DATA
;   core::str::slice_error_fail
    _ZN4core3str16slice_error_fail17h7fd3a33b62acf5a8E @ 1385
;   core::str::traits::<impl core::ops::Index<core::ops::RangeInclusive<usize>> for str>::index::_MSG_FILE_LINE
    "_ZN4core3str6traits96_$LT$impl$u20$core..ops..Index$LT$core..ops..RangeInclusive$LT$usize$GT$$GT$$u20$for$u20$str$GT$5index14_MSG_FILE_LINE17hd6fd0b7cae64a358E" @ 1386 DATA
;   core::str::traits::<impl core::ops::IndexMut<core::ops::RangeInclusive<usize>> for str>::index_mut::_MSG_FILE_LINE
    "_ZN4core3str6traits99_$LT$impl$u20$core..ops..IndexMut$LT$core..ops..RangeInclusive$LT$usize$GT$$GT$$u20$for$u20$str$GT$9index_mut14_MSG_FILE_LINE17hcea451a3468e1646E" @ 1387 DATA
;   core::str::<impl core::default::Default for &'a str>::default
    "_ZN4core3str71_$LT$impl$u20$core..default..Default$u20$for$u20$$RF$$u27$a$u20$str$GT$7default17h32bef5e0cfd530f2E" @ 1388
;   core::str::pattern::StrSearcher::new
    _ZN4core3str7pattern11StrSearcher3new17h9f3e535e83262410E @ 1389
;   core::str::Utf8Error::valid_up_to
    _ZN4core3str9Utf8Error11valid_up_to17h9dc418c702b7a912E @ 1390
;   core::str::Utf8Error::error_len
    _ZN4core3str9Utf8Error9error_len17h74a38b51a08ea2f9E @ 1391
;   core::str::from_utf8
    _ZN4core3str9from_utf817h4f8a04216f097b59E @ 1392
;   core::char::from_digit::_MSG_FILE_LINE
    _ZN4core4char10from_digit14_MSG_FILE_LINE17h34e5a77816180a2dE @ 1393 DATA
;   core::hash::sip::u8to64_le::_FILE_LINE
    _ZN4core4hash3sip9u8to64_le10_FILE_LINE17hbdd15e7966362579E @ 1394 DATA
;   core::hash::sip::u8to64_le::_MSG_FILE_LINE
    _ZN4core4hash3sip9u8to64_le14_MSG_FILE_LINE17h42dcd27a10659cedE @ 1395 DATA
;   core::hash::sip::u8to64_le::_MSG_FILE_LINE
    _ZN4core4hash3sip9u8to64_le14_MSG_FILE_LINE17ha150535e8b728bcaE @ 1396 DATA
;   core::hash::sip::u8to64_le::_MSG_FILE_LINE
    _ZN4core4hash3sip9u8to64_le14_MSG_FILE_LINE17hf1cc358b27137925E @ 1397 DATA
;   core::hash::sip::u8to64_le::__STATIC_FMTSTR
    _ZN4core4hash3sip9u8to64_le15__STATIC_FMTSTR17hee186793d6327fc0E @ 1398 DATA
;   core::iter::traits::ExactSizeIterator::len::_FILE_LINE
    _ZN4core4iter6traits17ExactSizeIterator3len10_FILE_LINE17h9b3eccf6a7237fc6E @ 1399 DATA
;   core::iter::traits::ExactSizeIterator::len::__STATIC_FMTSTR
    _ZN4core4iter6traits17ExactSizeIterator3len15__STATIC_FMTSTR17h9eecf47afa767818E @ 1400 DATA
;   core::sync::atomic::atomic_add::_MSG_FILE_LINE
    _ZN4core4sync6atomic10atomic_add14_MSG_FILE_LINE17h92d02a58390f99f2E @ 1401 DATA
;   core::sync::atomic::atomic_and::_MSG_FILE_LINE
    _ZN4core4sync6atomic10atomic_and14_MSG_FILE_LINE17h28cb3ff6159eae49E @ 1402 DATA
;   core::sync::atomic::atomic_sub::_MSG_FILE_LINE
    _ZN4core4sync6atomic10atomic_sub14_MSG_FILE_LINE17heb7af04bb77b07e4E @ 1403 DATA
;   core::sync::atomic::atomic_xor::_MSG_FILE_LINE
    _ZN4core4sync6atomic10atomic_xor14_MSG_FILE_LINE17hbac838ec3f026ac2E @ 1404 DATA
;   core::sync::atomic::atomic_load::_MSG_FILE_LINE
    _ZN4core4sync6atomic11atomic_load14_MSG_FILE_LINE17h1471a4b4b81b8ecfE @ 1405 DATA
;   core::sync::atomic::atomic_load::_MSG_FILE_LINE
    _ZN4core4sync6atomic11atomic_load14_MSG_FILE_LINE17h94f74bd0bf69bd66E @ 1406 DATA
;   core::sync::atomic::atomic_load::_MSG_FILE_LINE
    _ZN4core4sync6atomic11atomic_load14_MSG_FILE_LINE17had589be342ab6c4bE @ 1407 DATA
;   core::sync::atomic::atomic_swap::_MSG_FILE_LINE
    _ZN4core4sync6atomic11atomic_swap14_MSG_FILE_LINE17h6f583c54815749ccE @ 1408 DATA
;   core::sync::atomic::atomic_store::_MSG_FILE_LINE
    _ZN4core4sync6atomic12atomic_store14_MSG_FILE_LINE17h434e310bbf09018bE @ 1409 DATA
;   core::sync::atomic::atomic_store::_MSG_FILE_LINE
    _ZN4core4sync6atomic12atomic_store14_MSG_FILE_LINE17h9a9e2d05b4eab069E @ 1410 DATA
;   core::sync::atomic::atomic_store::_MSG_FILE_LINE
    _ZN4core4sync6atomic12atomic_store14_MSG_FILE_LINE17he326fcbab4a667eaE @ 1411 DATA
;   core::sync::atomic::compiler_fence::_MSG_FILE_LINE
    _ZN4core4sync6atomic14compiler_fence14_MSG_FILE_LINE17h5a759addafa62517E @ 1412 DATA
;   core::sync::atomic::compiler_fence::_MSG_FILE_LINE
    _ZN4core4sync6atomic14compiler_fence14_MSG_FILE_LINE17h88857e1274464a18E @ 1413 DATA
;   core::sync::atomic::atomic_compare_exchange::_MSG_FILE_LINE
    _ZN4core4sync6atomic23atomic_compare_exchange14_MSG_FILE_LINE17h5e2b3045e8de1829E @ 1414 DATA
;   core::sync::atomic::atomic_compare_exchange::_MSG_FILE_LINE
    _ZN4core4sync6atomic23atomic_compare_exchange14_MSG_FILE_LINE17h5ebcb50df28c9be8E @ 1415 DATA
;   core::sync::atomic::atomic_compare_exchange::_MSG_FILE_LINE
    _ZN4core4sync6atomic23atomic_compare_exchange14_MSG_FILE_LINE17h5f40ddab0bfd9c25E @ 1416 DATA
;   core::sync::atomic::atomic_compare_exchange::_MSG_FILE_LINE
    _ZN4core4sync6atomic23atomic_compare_exchange14_MSG_FILE_LINE17h635639186e3ff92dE @ 1417 DATA
;   core::sync::atomic::atomic_compare_exchange::_MSG_FILE_LINE
    _ZN4core4sync6atomic23atomic_compare_exchange14_MSG_FILE_LINE17hc4291c27e8bd8f40E @ 1418 DATA
;   core::sync::atomic::atomic_compare_exchange_weak::_MSG_FILE_LINE
    _ZN4core4sync6atomic28atomic_compare_exchange_weak14_MSG_FILE_LINE17h32d53634b9e6ee6aE @ 1419 DATA
;   core::sync::atomic::atomic_compare_exchange_weak::_MSG_FILE_LINE
    _ZN4core4sync6atomic28atomic_compare_exchange_weak14_MSG_FILE_LINE17h42137757ea0f575eE @ 1420 DATA
;   core::sync::atomic::atomic_compare_exchange_weak::_MSG_FILE_LINE
    _ZN4core4sync6atomic28atomic_compare_exchange_weak14_MSG_FILE_LINE17h4e1504d3d50b6dfbE @ 1421 DATA
;   core::sync::atomic::atomic_compare_exchange_weak::_MSG_FILE_LINE
    _ZN4core4sync6atomic28atomic_compare_exchange_weak14_MSG_FILE_LINE17h7b8b6a3112ebeb14E @ 1422 DATA
;   core::sync::atomic::atomic_compare_exchange_weak::_MSG_FILE_LINE
    _ZN4core4sync6atomic28atomic_compare_exchange_weak14_MSG_FILE_LINE17h8997f6c31b194a76E @ 1423 DATA
;   core::sync::atomic::fence::_MSG_FILE_LINE
    _ZN4core4sync6atomic5fence14_MSG_FILE_LINE17he47c98f9db6c6163E @ 1424 DATA
;   core::sync::atomic::fence::_MSG_FILE_LINE
    _ZN4core4sync6atomic5fence14_MSG_FILE_LINE17hf6b3b8013bc75ffaE @ 1425 DATA
;   core::sync::atomic::atomic_or::_MSG_FILE_LINE
    _ZN4core4sync6atomic9atomic_or14_MSG_FILE_LINE17h5fa3609ff6966b80E @ 1426 DATA
;   core::slice::slice_index_len_fail
    _ZN4core5slice20slice_index_len_fail17hb8a9bd54d271562cE @ 1427
;   core::slice::slice_index_order_fail
    _ZN4core5slice22slice_index_order_fail17he3edb881c3ed1fbcE @ 1428
;   core::slice::sort::partition_in_blocks::_FILE_LINE
    _ZN4core5slice4sort19partition_in_blocks10_FILE_LINE17h835101edc63c355dE @ 1429 DATA
;   core::slice::sort::partition_in_blocks::_FILE_LINE
    _ZN4core5slice4sort19partition_in_blocks10_FILE_LINE17hc51c42c9a0354d0aE @ 1430 DATA
;   core::slice::sort::partition_in_blocks::_MSG_FILE_LINE
    _ZN4core5slice4sort19partition_in_blocks14_MSG_FILE_LINE17h0aec2a65cd41677bE @ 1431 DATA
;   core::slice::sort::partition_in_blocks::_MSG_FILE_LINE
    _ZN4core5slice4sort19partition_in_blocks14_MSG_FILE_LINE17hd840b2ad94eeb6e7E @ 1432 DATA
;   core::slice::sort::partition_in_blocks::__STATIC_FMTSTR
    _ZN4core5slice4sort19partition_in_blocks15__STATIC_FMTSTR17h2a040aa1fc1fd8ceE @ 1433 DATA
;   core::slice::sort::partition_in_blocks::__STATIC_FMTSTR
    _ZN4core5slice4sort19partition_in_blocks15__STATIC_FMTSTR17h5b303d73ac8d2316E @ 1434 DATA
;   core::slice::sort::partition_in_blocks::width::_MSG_FILE_LINE
    _ZN4core5slice4sort19partition_in_blocks5width14_MSG_FILE_LINE17h8ac02da9a4c0c143E @ 1435 DATA
;   core::option::expect_failed
    _ZN4core6option13expect_failed17h0e98f55b52fa9851E @ 1436
;   core::result::unwrap_failed::_FILE_LINE
    _ZN4core6result13unwrap_failed10_FILE_LINE17hcd9701f797ec7308E @ 1437 DATA
;   core::result::unwrap_failed::__STATIC_FMTSTR
    _ZN4core6result13unwrap_failed15__STATIC_FMTSTR17hc5344b75144e9b3dE @ 1438 DATA
;   core::panicking::panic_bounds_check
    _ZN4core9panicking18panic_bounds_check17h7122278ee3f63386E @ 1439
;   core::panicking::panic
    _ZN4core9panicking5panic17h765bacbd51288f88E @ 1440
;   core::panicking::panic_fmt
    _ZN4core9panicking9panic_fmt17hdb399e3f2f15225bE @ 1441
;   rand::XorShiftRng::new_unseeded
    _ZN4rand11XorShiftRng12new_unseeded17h58eedc55bdf261f0E @ 1442
;   rand::distributions::exponential::Exp::new
    _ZN4rand13distributions11exponential3Exp3new17h35fb0a5b9b8f2f32E @ 1443
;   rand::distributions::ziggurat_tables::ZIG_NORM_F
    _ZN4rand13distributions15ziggurat_tables10ZIG_NORM_F17h426d46bddb1d4d1bE @ 1444 DATA
;   rand::distributions::ziggurat_tables::ZIG_NORM_X
    _ZN4rand13distributions15ziggurat_tables10ZIG_NORM_X17hd3e34a028fb79e21E @ 1445 DATA
;   rand::distributions::ziggurat_tables::ZIG_EXP_F
    _ZN4rand13distributions15ziggurat_tables9ZIG_EXP_F17he59538b7c66b4430E @ 1446 DATA
;   rand::distributions::ziggurat_tables::ZIG_EXP_X
    _ZN4rand13distributions15ziggurat_tables9ZIG_EXP_X17ha31e8f9788bf7beaE @ 1447 DATA
;   rand::distributions::gamma::ChiSquared::new
    _ZN4rand13distributions5gamma10ChiSquared3new17hc67a540eb2ca6b6dE @ 1448
;   rand::distributions::gamma::Gamma::new
    _ZN4rand13distributions5gamma5Gamma3new17hf6646a0ea80bd036E @ 1449
;   rand::distributions::gamma::FisherF::new
    _ZN4rand13distributions5gamma7FisherF3new17h38ee50a95ac0f7b6E @ 1450
;   rand::distributions::gamma::StudentT::new
    _ZN4rand13distributions5gamma8StudentT3new17h6d19a6754b44a6b5E @ 1451
;   rand::distributions::normal::Normal::new
    _ZN4rand13distributions6normal6Normal3new17h1fe76a83ca1b7892E @ 1452
;   rand::distributions::normal::LogNormal::new
    _ZN4rand13distributions6normal9LogNormal3new17h6974f909a80a23ceE @ 1453
;   rand::Rng::gen_range::_MSG_FILE_LINE
    _ZN4rand3Rng9gen_range14_MSG_FILE_LINE17ha620c2c6dc373b77E @ 1454 DATA
;   rand::isaac::Isaac64Rng::new_unseeded
    _ZN4rand5isaac10Isaac64Rng12new_unseeded17h3ac48d0a9f68b0acE @ 1455
;   rand::isaac::Isaac64Rng::init
    _ZN4rand5isaac10Isaac64Rng4init17h9a088d3be45d3501E @ 1456
;   rand::isaac::Isaac64Rng::isaac64
    _ZN4rand5isaac10Isaac64Rng7isaac6417h7d01c9c7711eaec9E @ 1457
;   rand::isaac::EMPTY
    _ZN4rand5isaac5EMPTY17hccdca98a5e3d6cc9E @ 1458 DATA
;   rand::isaac::EMPTY_64
    _ZN4rand5isaac8EMPTY_6417h2d50606973a62a8fE @ 1459 DATA
;   rand::isaac::IsaacRng::new_unseeded
    _ZN4rand5isaac8IsaacRng12new_unseeded17h09160a44af78e39fE @ 1460
;   rand::isaac::IsaacRng::init
    _ZN4rand5isaac8IsaacRng4init17h74d1866cc1d85313E @ 1461
;   rand::chacha::ChaChaRng::set_counter
    _ZN4rand6chacha9ChaChaRng11set_counter17ha5ddefeaf5654503E @ 1462
;   rand::chacha::ChaChaRng::new_unseeded
    _ZN4rand6chacha9ChaChaRng12new_unseeded17h2808f7f87e09d2a9E @ 1463
;   rand::chacha::ChaChaRng::update
    _ZN4rand6chacha9ChaChaRng6update17hdd64e4de656c046cE @ 1464
;   <collections::vec_deque::VecDeque<T>>::shrink_to_fit::_MSG_FILE_LINE
    "_ZN50_$LT$collections..vec_deque..VecDeque$LT$T$GT$$GT$13shrink_to_fit14_MSG_FILE_LINE17h0b0c8bb207d1c276E" @ 1465 DATA
;   <collections::vec_deque::VecDeque<T>>::shrink_to_fit::_MSG_FILE_LINE
    "_ZN50_$LT$collections..vec_deque..VecDeque$LT$T$GT$$GT$13shrink_to_fit14_MSG_FILE_LINE17h2eab89176afcb68fE" @ 1466 DATA
;   <collections::vec_deque::VecDeque<T>>::shrink_to_fit::_MSG_FILE_LINE
    "_ZN50_$LT$collections..vec_deque..VecDeque$LT$T$GT$$GT$13shrink_to_fit14_MSG_FILE_LINE17h3df59720db1c8370E" @ 1467 DATA
;   <collections::vec_deque::VecDeque<T>>::shrink_to_fit::_MSG_FILE_LINE
    "_ZN50_$LT$collections..vec_deque..VecDeque$LT$T$GT$$GT$13shrink_to_fit14_MSG_FILE_LINE17h7bec84fae6efaac3E" @ 1468 DATA
;   <collections::vec_deque::VecDeque<T>>::shrink_to_fit::_MSG_FILE_LINE
    "_ZN50_$LT$collections..vec_deque..VecDeque$LT$T$GT$$GT$13shrink_to_fit14_MSG_FILE_LINE17h9c27c8b7275d226fE" @ 1469 DATA
;   <collections::vec_deque::VecDeque<T>>::shrink_to_fit::_MSG_FILE_LINE
    "_ZN50_$LT$collections..vec_deque..VecDeque$LT$T$GT$$GT$13shrink_to_fit14_MSG_FILE_LINE17hb47c9baa8e2fb97dE" @ 1470 DATA
;   <collections::vec_deque::VecDeque<T>>::with_capacity::_MSG_FILE_LINE
    "_ZN50_$LT$collections..vec_deque..VecDeque$LT$T$GT$$GT$13with_capacity14_MSG_FILE_LINE17h5d205cf5385c03bbE" @ 1471 DATA
;   <collections::vec_deque::VecDeque<T>>::grow_if_necessary::_MSG_FILE_LINE
    "_ZN50_$LT$collections..vec_deque..VecDeque$LT$T$GT$$GT$17grow_if_necessary14_MSG_FILE_LINE17hb429657d93e6d320E" @ 1472 DATA
;   <collections::vec_deque::VecDeque<T>>::copy_nonoverlapping::_FILE_LINE
    "_ZN50_$LT$collections..vec_deque..VecDeque$LT$T$GT$$GT$19copy_nonoverlapping10_FILE_LINE17h6e0d63cd02bb7885E" @ 1473 DATA
;   <collections::vec_deque::VecDeque<T>>::copy_nonoverlapping::_FILE_LINE
    "_ZN50_$LT$collections..vec_deque..VecDeque$LT$T$GT$$GT$19copy_nonoverlapping10_FILE_LINE17h93bb1b6871f279beE" @ 1474 DATA
;   <collections::vec_deque::VecDeque<T>>::copy_nonoverlapping::__STATIC_FMTSTR
    "_ZN50_$LT$collections..vec_deque..VecDeque$LT$T$GT$$GT$19copy_nonoverlapping15__STATIC_FMTSTR17ha1a45e73f23976a0E" @ 1475 DATA
;   <collections::vec_deque::VecDeque<T>>::copy_nonoverlapping::__STATIC_FMTSTR
    "_ZN50_$LT$collections..vec_deque..VecDeque$LT$T$GT$$GT$19copy_nonoverlapping15__STATIC_FMTSTR17hb2c19ac0554af9d5E" @ 1476 DATA
;   <collections::vec_deque::VecDeque<T>>::handle_cap_increase::_MSG_FILE_LINE
    "_ZN50_$LT$collections..vec_deque..VecDeque$LT$T$GT$$GT$19handle_cap_increase14_MSG_FILE_LINE17h0f0931edc4004e94E" @ 1477 DATA
;   <collections::vec_deque::VecDeque<T>>::handle_cap_increase::_MSG_FILE_LINE
    "_ZN50_$LT$collections..vec_deque..VecDeque$LT$T$GT$$GT$19handle_cap_increase14_MSG_FILE_LINE17h383aca24d79696fdE" @ 1478 DATA
;   <collections::vec_deque::VecDeque<T>>::handle_cap_increase::_MSG_FILE_LINE
    "_ZN50_$LT$collections..vec_deque..VecDeque$LT$T$GT$$GT$19handle_cap_increase14_MSG_FILE_LINE17h9474de125f8dc8e5E" @ 1479 DATA
;   <collections::vec_deque::VecDeque<T>>::handle_cap_increase::_MSG_FILE_LINE
    "_ZN50_$LT$collections..vec_deque..VecDeque$LT$T$GT$$GT$19handle_cap_increase14_MSG_FILE_LINE17h9cb0790e0e2573beE" @ 1480 DATA
;   <collections::vec_deque::VecDeque<T>>::handle_cap_increase::_MSG_FILE_LINE
    "_ZN50_$LT$collections..vec_deque..VecDeque$LT$T$GT$$GT$19handle_cap_increase14_MSG_FILE_LINE17hfa726434d7c4766bE" @ 1481 DATA
;   <collections::vec_deque::VecDeque<T>>::copy::_FILE_LINE
    "_ZN50_$LT$collections..vec_deque..VecDeque$LT$T$GT$$GT$4copy10_FILE_LINE17h1bc8a5fb4b95fca6E" @ 1482 DATA
;   <collections::vec_deque::VecDeque<T>>::copy::_FILE_LINE
    "_ZN50_$LT$collections..vec_deque..VecDeque$LT$T$GT$$GT$4copy10_FILE_LINE17h5ba1e7d5ee1149eaE" @ 1483 DATA
;   <collections::vec_deque::VecDeque<T>>::copy::__STATIC_FMTSTR
    "_ZN50_$LT$collections..vec_deque..VecDeque$LT$T$GT$$GT$4copy15__STATIC_FMTSTR17h4cfb77107acaef12E" @ 1484 DATA
;   <collections::vec_deque::VecDeque<T>>::copy::__STATIC_FMTSTR
    "_ZN50_$LT$collections..vec_deque..VecDeque$LT$T$GT$$GT$4copy15__STATIC_FMTSTR17hd259da384cc3780fE" @ 1485 DATA
;   <collections::vec_deque::VecDeque<T>>::swap::_MSG_FILE_LINE
    "_ZN50_$LT$collections..vec_deque..VecDeque$LT$T$GT$$GT$4swap14_MSG_FILE_LINE17h89d276c503107042E" @ 1486 DATA
;   <collections::vec_deque::VecDeque<T>>::swap::_MSG_FILE_LINE
    "_ZN50_$LT$collections..vec_deque..VecDeque$LT$T$GT$$GT$4swap14_MSG_FILE_LINE17hb56d84959bc1c050E" @ 1487 DATA
;   <collections::vec_deque::VecDeque<T>>::drain::_MSG_FILE_LINE
    "_ZN50_$LT$collections..vec_deque..VecDeque$LT$T$GT$$GT$5drain14_MSG_FILE_LINE17h3c99980ae0cee340E" @ 1488 DATA
;   <collections::vec_deque::VecDeque<T>>::drain::_MSG_FILE_LINE
    "_ZN50_$LT$collections..vec_deque..VecDeque$LT$T$GT$$GT$5drain14_MSG_FILE_LINE17hfe971f360900aed1E" @ 1489 DATA
;   <collections::vec_deque::VecDeque<T>>::insert::_MSG_FILE_LINE
    "_ZN50_$LT$collections..vec_deque..VecDeque$LT$T$GT$$GT$6insert14_MSG_FILE_LINE17h4c218eadbcd2fe3fE" @ 1490 DATA
;   <collections::vec_deque::VecDeque<T>>::split_off::_MSG_FILE_LINE
    "_ZN50_$LT$collections..vec_deque..VecDeque$LT$T$GT$$GT$9split_off14_MSG_FILE_LINE17hb38df5942a4182c5E" @ 1491 DATA
;   <collections::vec_deque::VecDeque<T>>::wrap_copy::_FILE_LINE
    "_ZN50_$LT$collections..vec_deque..VecDeque$LT$T$GT$$GT$9wrap_copy10_FILE_LINE17h2410662cf94ae630E" @ 1492 DATA
;   <collections::vec_deque::VecDeque<T>>::wrap_copy::_MSG_FILE_LINE
    "_ZN50_$LT$collections..vec_deque..VecDeque$LT$T$GT$$GT$9wrap_copy14_MSG_FILE_LINE17ha74aba52b8bcaf47E" @ 1493 DATA
;   <collections::vec_deque::VecDeque<T>>::wrap_copy::_MSG_FILE_LINE
    "_ZN50_$LT$collections..vec_deque..VecDeque$LT$T$GT$$GT$9wrap_copy14_MSG_FILE_LINE17hfb14a012f72a20b7E" @ 1494 DATA
;   <collections::vec_deque::VecDeque<T>>::wrap_copy::__STATIC_FMTSTR
    "_ZN50_$LT$collections..vec_deque..VecDeque$LT$T$GT$$GT$9wrap_copy15__STATIC_FMTSTR17h7241fd5bf2e7367aE" @ 1495 DATA
;   <collections::vec_deque::VecDeque<T>>::wrap_copy::diff
    "_ZN50_$LT$collections..vec_deque..VecDeque$LT$T$GT$$GT$9wrap_copy4diff17h65a25ffd5d0b8f65E" @ 1496
;   <std::fs::File as core::fmt::Debug>::fmt
    "_ZN50_$LT$std..fs..File$u20$as$u20$core..fmt..Debug$GT$3fmt17hba8b45f56cd75350E" @ 1497
;   <std::path::Path as core::cmp::Ord>::cmp
    "_ZN50_$LT$std..path..Path$u20$as$u20$core..cmp..Ord$GT$3cmp17hb8403001ad696d73E" @ 1498
;   <std::rand::ThreadRng as rand::Rng>::next_u32
    "_ZN50_$LT$std..rand..ThreadRng$u20$as$u20$rand..Rng$GT$8next_u3217hec80dd703b98fd0fE" @ 1499
;   <std::rand::ThreadRng as rand::Rng>::next_u64
    "_ZN50_$LT$std..rand..ThreadRng$u20$as$u20$rand..Rng$GT$8next_u6417hc93e23278f855730E" @ 1500
;   <std::sync::mpsc::oneshot::Packet<T>>::abort_selection::_FILE_LINE
    "_ZN50_$LT$std..sync..mpsc..oneshot..Packet$LT$T$GT$$GT$15abort_selection10_FILE_LINE17hae48be7ff2c09230E" @ 1501 DATA
;   <std::sync::mpsc::oneshot::Packet<T>>::start_selection::_FILE_LINE
    "_ZN50_$LT$std..sync..mpsc..oneshot..Packet$LT$T$GT$$GT$15start_selection10_FILE_LINE17hd89bfd63b7bef49fE" @ 1502 DATA
;   <std::sync::mpsc::oneshot::Packet<T>>::recv::_FILE_LINE
    "_ZN50_$LT$std..sync..mpsc..oneshot..Packet$LT$T$GT$$GT$4recv10_FILE_LINE17h2a35fc62e2cc53d8E" @ 1503 DATA
;   <std::sync::mpsc::oneshot::Packet<T>>::send::_FILE_LINE
    "_ZN50_$LT$std..sync..mpsc..oneshot..Packet$LT$T$GT$$GT$4send10_FILE_LINE17h42f65207f08c5741E" @ 1504 DATA
;   <std::sync::mpsc::oneshot::Packet<T>>::send::_FILE_LINE
    "_ZN50_$LT$std..sync..mpsc..oneshot..Packet$LT$T$GT$$GT$4send10_FILE_LINE17h49b67a96ba3dc230E" @ 1505 DATA
;   <std::sync::mpsc::oneshot::Packet<T>>::send::_FILE_LINE
    "_ZN50_$LT$std..sync..mpsc..oneshot..Packet$LT$T$GT$$GT$4send10_FILE_LINE17h94be5a1160dbc79cE" @ 1506 DATA
;   <std::sync::mpsc::oneshot::Packet<T>>::upgrade::_FILE_LINE
    "_ZN50_$LT$std..sync..mpsc..oneshot..Packet$LT$T$GT$$GT$7upgrade10_FILE_LINE17hfe6eacb7aa56afc9E" @ 1507 DATA
;   <std::sync::mpsc::oneshot::Packet<T>>::can_recv::_FILE_LINE
    "_ZN50_$LT$std..sync..mpsc..oneshot..Packet$LT$T$GT$$GT$8can_recv10_FILE_LINE17h5bd4a9865a60d810E" @ 1508 DATA
;   <std::sync::mpsc::oneshot::Packet<T>>::try_recv::_FILE_LINE
    "_ZN50_$LT$std..sync..mpsc..oneshot..Packet$LT$T$GT$$GT$8try_recv10_FILE_LINE17h9da9afe1ba2fe72bE" @ 1509 DATA
;   <std::sync::mpsc::oneshot::Packet<T>>::try_recv::_FILE_LINE
    "_ZN50_$LT$std..sync..mpsc..oneshot..Packet$LT$T$GT$$GT$8try_recv10_FILE_LINE17hff372d577e7ca75eE" @ 1510 DATA
;   <std::sync::mpsc::oneshot::Packet<T>>::drop_port::_FILE_LINE
    "_ZN50_$LT$std..sync..mpsc..oneshot..Packet$LT$T$GT$$GT$9drop_port10_FILE_LINE17h166ebfe87f4913c9E" @ 1511 DATA
;   <u16 as core::num::bignum::FullOps>::full_div_rem
    "_ZN50_$LT$u16$u20$as$u20$core..num..bignum..FullOps$GT$12full_div_rem17hfb3779a990802f25E" @ 1512
;   <u16 as core::num::bignum::FullOps>::full_mul_add
    "_ZN50_$LT$u16$u20$as$u20$core..num..bignum..FullOps$GT$12full_mul_add17hd5284cca8750af9aE" @ 1513
;   <u16 as core::num::bignum::FullOps>::full_add
    "_ZN50_$LT$u16$u20$as$u20$core..num..bignum..FullOps$GT$8full_add17h538ccdeb46378159E" @ 1514
;   <u16 as core::num::bignum::FullOps>::full_mul
    "_ZN50_$LT$u16$u20$as$u20$core..num..bignum..FullOps$GT$8full_mul17h9292f2a8de477711E" @ 1515
;   <u32 as core::num::bignum::FullOps>::full_div_rem
    "_ZN50_$LT$u32$u20$as$u20$core..num..bignum..FullOps$GT$12full_div_rem17heb0a21d8d795fc39E" @ 1516
;   <u32 as core::num::bignum::FullOps>::full_mul_add
    "_ZN50_$LT$u32$u20$as$u20$core..num..bignum..FullOps$GT$12full_mul_add17h417880e02a5f12a9E" @ 1517
;   <u32 as core::num::bignum::FullOps>::full_add
    "_ZN50_$LT$u32$u20$as$u20$core..num..bignum..FullOps$GT$8full_add17ha27bf8ebf1d8c95eE" @ 1518
;   <u32 as core::num::bignum::FullOps>::full_mul
    "_ZN50_$LT$u32$u20$as$u20$core..num..bignum..FullOps$GT$8full_mul17hc3f3293e76d625a0E" @ 1519
;   <T as collections::string::ToString>::to_string::__STATIC_FMTSTR
    "_ZN51_$LT$T$u20$as$u20$collections..string..ToString$GT$9to_string15__STATIC_FMTSTR17hde8164176e70f93fE" @ 1520 DATA
;   <rand::distributions::range::Range<X>>::new::_MSG_FILE_LINE
    "_ZN51_$LT$rand..distributions..range..Range$LT$X$GT$$GT$3new14_MSG_FILE_LINE17h0890288c13fc5ce4E" @ 1521 DATA
;   <rand::isaac::IsaacRng as rand::Rng>::next_u32::_MSG_FILE_LINE
    "_ZN51_$LT$rand..isaac..IsaacRng$u20$as$u20$rand..Rng$GT$8next_u3214_MSG_FILE_LINE17h945befa4d29f4851E" @ 1522 DATA
;   <std::env::Args as core::fmt::Debug>::fmt
    "_ZN51_$LT$std..env..Args$u20$as$u20$core..fmt..Debug$GT$3fmt17h16af913a8a5274ceE" @ 1523
;   <std::env::Vars as core::fmt::Debug>::fmt
    "_ZN51_$LT$std..env..Vars$u20$as$u20$core..fmt..Debug$GT$3fmt17h649f4e91b944d718E" @ 1524
;   <i8 as core::num::FromStrRadixHelper>::checked_add
    "_ZN52_$LT$i8$u20$as$u20$core..num..FromStrRadixHelper$GT$11checked_add17hb4640d6cbdca558aE" @ 1525
;   <i8 as core::num::FromStrRadixHelper>::checked_mul
    "_ZN52_$LT$i8$u20$as$u20$core..num..FromStrRadixHelper$GT$11checked_mul17hf4f3cb9653f3115eE" @ 1526
;   <i8 as core::num::FromStrRadixHelper>::checked_sub
    "_ZN52_$LT$i8$u20$as$u20$core..num..FromStrRadixHelper$GT$11checked_sub17h6ff05fe4b381f2f6E" @ 1527
;   <i8 as core::num::FromStrRadixHelper>::from_u32
    "_ZN52_$LT$i8$u20$as$u20$core..num..FromStrRadixHelper$GT$8from_u3217habac97adce4b9f27E" @ 1528
;   <i8 as core::num::FromStrRadixHelper>::max_value
    "_ZN52_$LT$i8$u20$as$u20$core..num..FromStrRadixHelper$GT$9max_value17h44d909bfb54ea1d7E" @ 1529
;   <i8 as core::num::FromStrRadixHelper>::min_value
    "_ZN52_$LT$i8$u20$as$u20$core..num..FromStrRadixHelper$GT$9min_value17he5633b10cf7981f6E" @ 1530
;   <std::path::Path as core::fmt::Debug>::fmt
    "_ZN52_$LT$std..path..Path$u20$as$u20$core..fmt..Debug$GT$3fmt17h37a281339ce03139E" @ 1531
;   <std::sync::mpsc::mpsc_queue::Queue<T>>::pop::_FILE_LINE
    "_ZN52_$LT$std..sync..mpsc..mpsc_queue..Queue$LT$T$GT$$GT$3pop10_FILE_LINE17h15cd6da714164d54E" @ 1532 DATA
;   <std::sync::mpsc::mpsc_queue::Queue<T>>::pop::_FILE_LINE
    "_ZN52_$LT$std..sync..mpsc..mpsc_queue..Queue$LT$T$GT$$GT$3pop10_FILE_LINE17h60eb050b13717118E" @ 1533 DATA
;   <std::sync::mpsc::spsc_queue::Queue<T>>::pop::_FILE_LINE
    "_ZN52_$LT$std..sync..mpsc..spsc_queue..Queue$LT$T$GT$$GT$3pop10_FILE_LINE17h2cdfe9cba77f9d9dE" @ 1534 DATA
;   <std::sync::mpsc::spsc_queue::Queue<T>>::push::_FILE_LINE
    "_ZN52_$LT$std..sync..mpsc..spsc_queue..Queue$LT$T$GT$$GT$4push10_FILE_LINE17heb0ad97804cda985E" @ 1535 DATA
;   <u8 as core::num::FromStrRadixHelper>::checked_add
    "_ZN52_$LT$u8$u20$as$u20$core..num..FromStrRadixHelper$GT$11checked_add17h53a540e9bacc5519E" @ 1536
;   <u8 as core::num::FromStrRadixHelper>::checked_mul
    "_ZN52_$LT$u8$u20$as$u20$core..num..FromStrRadixHelper$GT$11checked_mul17ha8a3a3d552024d42E" @ 1537
;   <u8 as core::num::FromStrRadixHelper>::checked_sub
    "_ZN52_$LT$u8$u20$as$u20$core..num..FromStrRadixHelper$GT$11checked_sub17ha76ec6b53d9d6a1cE" @ 1538
;   <u8 as core::num::FromStrRadixHelper>::from_u32
    "_ZN52_$LT$u8$u20$as$u20$core..num..FromStrRadixHelper$GT$8from_u3217h1f3bcd84d1536963E" @ 1539
;   <u8 as core::num::FromStrRadixHelper>::max_value
    "_ZN52_$LT$u8$u20$as$u20$core..num..FromStrRadixHelper$GT$9max_value17h4a2b3fe761e4954bE" @ 1540
;   <u8 as core::num::FromStrRadixHelper>::min_value
    "_ZN52_$LT$u8$u20$as$u20$core..num..FromStrRadixHelper$GT$9min_value17ha0885fbe94138b02E" @ 1541
;   <[T] as core::slice::SliceExt>::chunks_mut::_MSG_FILE_LINE
    "_ZN53_$LT$$u5b$T$u5d$$u20$as$u20$core..slice..SliceExt$GT$10chunks_mut14_MSG_FILE_LINE17h087b52e897eb0287E" @ 1542 DATA
;   <[T] as core::slice::SliceExt>::split_at_mut::_MSG_FILE_LINE
    "_ZN53_$LT$$u5b$T$u5d$$u20$as$u20$core..slice..SliceExt$GT$12split_at_mut14_MSG_FILE_LINE17hf46da4ba3b74a44aE" @ 1543 DATA
;   <[T] as core::slice::SliceExt>::copy_from_slice::_MSG_FILE_LINE
    "_ZN53_$LT$$u5b$T$u5d$$u20$as$u20$core..slice..SliceExt$GT$15copy_from_slice14_MSG_FILE_LINE17hb51275b0511fcfc2E" @ 1544 DATA
;   <[T] as core::slice::SliceExt>::clone_from_slice::_MSG_FILE_LINE
    "_ZN53_$LT$$u5b$T$u5d$$u20$as$u20$core..slice..SliceExt$GT$16clone_from_slice14_MSG_FILE_LINE17h9e4daf2ddbf236beE" @ 1545 DATA
;   <[T] as core::slice::SliceExt>::chunks::_MSG_FILE_LINE
    "_ZN53_$LT$$u5b$T$u5d$$u20$as$u20$core..slice..SliceExt$GT$6chunks14_MSG_FILE_LINE17h55ab3c6776d35056E" @ 1546 DATA
;   <[T] as core::slice::SliceExt>::windows::_MSG_FILE_LINE
    "_ZN53_$LT$$u5b$T$u5d$$u20$as$u20$core..slice..SliceExt$GT$7windows14_MSG_FILE_LINE17hf2c3ed07fb04d900E" @ 1547 DATA
;   <[u8] as std::ascii::AsciiExt>::make_ascii_lowercase
    "_ZN53_$LT$$u5b$u8$u5d$$u20$as$u20$std..ascii..AsciiExt$GT$20make_ascii_lowercase17ha31d69b0c736eaf2E" @ 1548
;   <[u8] as std::ascii::AsciiExt>::make_ascii_uppercase
    "_ZN53_$LT$$u5b$u8$u5d$$u20$as$u20$std..ascii..AsciiExt$GT$20make_ascii_uppercase17hf8670a97a1e7bf3aE" @ 1549
;   <core::fmt::Error as core::fmt::Debug>::fmt
    "_ZN53_$LT$core..fmt..Error$u20$as$u20$core..fmt..Debug$GT$3fmt17hf72bcb75daad7d1aE" @ 1550
;   <i16 as core::num::FromStrRadixHelper>::checked_add
    "_ZN53_$LT$i16$u20$as$u20$core..num..FromStrRadixHelper$GT$11checked_add17h6bbb234802b0fa36E" @ 1551
;   <i16 as core::num::FromStrRadixHelper>::checked_mul
    "_ZN53_$LT$i16$u20$as$u20$core..num..FromStrRadixHelper$GT$11checked_mul17h146abd7149fc09b9E" @ 1552
;   <i16 as core::num::FromStrRadixHelper>::checked_sub
    "_ZN53_$LT$i16$u20$as$u20$core..num..FromStrRadixHelper$GT$11checked_sub17hcdfc7dffe3347b26E" @ 1553
;   <i16 as core::num::FromStrRadixHelper>::from_u32
    "_ZN53_$LT$i16$u20$as$u20$core..num..FromStrRadixHelper$GT$8from_u3217h6d10190036517dffE" @ 1554
;   <i16 as core::num::FromStrRadixHelper>::max_value
    "_ZN53_$LT$i16$u20$as$u20$core..num..FromStrRadixHelper$GT$9max_value17h303a4fea2c7645edE" @ 1555
;   <i16 as core::num::FromStrRadixHelper>::min_value
    "_ZN53_$LT$i16$u20$as$u20$core..num..FromStrRadixHelper$GT$9min_value17h826ccbd0edc13687E" @ 1556
;   <i32 as core::num::FromStrRadixHelper>::checked_add
    "_ZN53_$LT$i32$u20$as$u20$core..num..FromStrRadixHelper$GT$11checked_add17ha0ab65ed1cdc7fcfE" @ 1557
;   <i32 as core::num::FromStrRadixHelper>::checked_mul
    "_ZN53_$LT$i32$u20$as$u20$core..num..FromStrRadixHelper$GT$11checked_mul17h82f7d761bcd05e33E" @ 1558
;   <i32 as core::num::FromStrRadixHelper>::checked_sub
    "_ZN53_$LT$i32$u20$as$u20$core..num..FromStrRadixHelper$GT$11checked_sub17hea566fe8797376dbE" @ 1559
;   <i32 as core::num::FromStrRadixHelper>::from_u32
    "_ZN53_$LT$i32$u20$as$u20$core..num..FromStrRadixHelper$GT$8from_u3217h1f1a831ca8d686dbE" @ 1560
;   <i32 as core::num::FromStrRadixHelper>::max_value
    "_ZN53_$LT$i32$u20$as$u20$core..num..FromStrRadixHelper$GT$9max_value17h14a9d0b6647da6d8E" @ 1561
;   <i32 as core::num::FromStrRadixHelper>::min_value
    "_ZN53_$LT$i32$u20$as$u20$core..num..FromStrRadixHelper$GT$9min_value17h09c4461ac75e2263E" @ 1562
;   <i64 as core::num::FromStrRadixHelper>::checked_add
    "_ZN53_$LT$i64$u20$as$u20$core..num..FromStrRadixHelper$GT$11checked_add17h860a1f3296942cabE" @ 1563
;   <i64 as core::num::FromStrRadixHelper>::checked_mul
    "_ZN53_$LT$i64$u20$as$u20$core..num..FromStrRadixHelper$GT$11checked_mul17h03d1d2153fa1ee20E" @ 1564
;   <i64 as core::num::FromStrRadixHelper>::checked_sub
    "_ZN53_$LT$i64$u20$as$u20$core..num..FromStrRadixHelper$GT$11checked_sub17h635586f48150d24dE" @ 1565
;   <i64 as core::num::FromStrRadixHelper>::from_u32
    "_ZN53_$LT$i64$u20$as$u20$core..num..FromStrRadixHelper$GT$8from_u3217h6760a800d63d8837E" @ 1566
;   <i64 as core::num::FromStrRadixHelper>::max_value
    "_ZN53_$LT$i64$u20$as$u20$core..num..FromStrRadixHelper$GT$9max_value17hf87f72adb9846281E" @ 1567
;   <i64 as core::num::FromStrRadixHelper>::min_value
    "_ZN53_$LT$i64$u20$as$u20$core..num..FromStrRadixHelper$GT$9min_value17hdf459678f409b84aE" @ 1568
;   <i8 as std::sys::imp::net::IsMinusOne>::is_minus_one
    "_ZN53_$LT$i8$u20$as$u20$std..sys..imp..net..IsMinusOne$GT$12is_minus_one17h4fd1fb67d72d5fe5E" @ 1569
;   <rand::isaac::Isaac64Rng as rand::Rng>::next_u64::_MSG_FILE_LINE
    "_ZN53_$LT$rand..isaac..Isaac64Rng$u20$as$u20$rand..Rng$GT$8next_u6414_MSG_FILE_LINE17h62a84494a2135effE" @ 1570 DATA
;   <std::env::ArgsOs as core::fmt::Debug>::fmt
    "_ZN53_$LT$std..env..ArgsOs$u20$as$u20$core..fmt..Debug$GT$3fmt17hed019ab702445e6aE" @ 1571
;   <std::env::VarsOs as core::fmt::Debug>::fmt
    "_ZN53_$LT$std..env..VarsOs$u20$as$u20$core..fmt..Debug$GT$3fmt17h52db5142f030a0baE" @ 1572
;   <std::fs::ReadDir as core::fmt::Debug>::fmt
    "_ZN53_$LT$std..fs..ReadDir$u20$as$u20$core..fmt..Debug$GT$3fmt17hd192fd8392dd33d9E" @ 1573
;   <std::path::PathBuf as core::cmp::Ord>::cmp
    "_ZN53_$LT$std..path..PathBuf$u20$as$u20$core..cmp..Ord$GT$3cmp17h28bf118171b33059E" @ 1574
;   <std::path::State as core::fmt::Debug>::fmt
    "_ZN53_$LT$std..path..State$u20$as$u20$core..fmt..Debug$GT$3fmt17hf5f68e375d5910c1E" @ 1575
;   <std::time::Instant as core::ops::Sub>::sub
    "_ZN53_$LT$std..time..Instant$u20$as$u20$core..ops..Sub$GT$3sub17ha833e685823ecd18E" @ 1576
;   <str as std::net::addr::ToSocketAddrs>::to_socket_addrs
    "_ZN53_$LT$str$u20$as$u20$std..net..addr..ToSocketAddrs$GT$15to_socket_addrs17hec768ff399e555aaE" @ 1577
;   <u16 as core::num::FromStrRadixHelper>::checked_add
    "_ZN53_$LT$u16$u20$as$u20$core..num..FromStrRadixHelper$GT$11checked_add17h6081bee7d565fda1E" @ 1578
;   <u16 as core::num::FromStrRadixHelper>::checked_mul
    "_ZN53_$LT$u16$u20$as$u20$core..num..FromStrRadixHelper$GT$11checked_mul17h8300604683cc2f0cE" @ 1579
;   <u16 as core::num::FromStrRadixHelper>::checked_sub
    "_ZN53_$LT$u16$u20$as$u20$core..num..FromStrRadixHelper$GT$11checked_sub17hd3d6a8f88f0f65dbE" @ 1580
;   <u16 as core::num::FromStrRadixHelper>::from_u32
    "_ZN53_$LT$u16$u20$as$u20$core..num..FromStrRadixHelper$GT$8from_u3217h65e28f6a5793628cE" @ 1581
;   <u16 as core::num::FromStrRadixHelper>::max_value
    "_ZN53_$LT$u16$u20$as$u20$core..num..FromStrRadixHelper$GT$9max_value17haa5f31299499d95fE" @ 1582
;   <u16 as core::num::FromStrRadixHelper>::min_value
    "_ZN53_$LT$u16$u20$as$u20$core..num..FromStrRadixHelper$GT$9min_value17he111d279024fcdc4E" @ 1583
;   <u32 as core::num::FromStrRadixHelper>::checked_add
    "_ZN53_$LT$u32$u20$as$u20$core..num..FromStrRadixHelper$GT$11checked_add17h39cc679e455b8737E" @ 1584
;   <u32 as core::num::FromStrRadixHelper>::checked_mul
    "_ZN53_$LT$u32$u20$as$u20$core..num..FromStrRadixHelper$GT$11checked_mul17h3cd81563502c6c11E" @ 1585
;   <u32 as core::num::FromStrRadixHelper>::checked_sub
    "_ZN53_$LT$u32$u20$as$u20$core..num..FromStrRadixHelper$GT$11checked_sub17hb5a70f6b420674d4E" @ 1586
;   <u32 as core::num::FromStrRadixHelper>::from_u32
    "_ZN53_$LT$u32$u20$as$u20$core..num..FromStrRadixHelper$GT$8from_u3217hc5582b119774ec2fE" @ 1587
;   <u32 as core::num::FromStrRadixHelper>::max_value
    "_ZN53_$LT$u32$u20$as$u20$core..num..FromStrRadixHelper$GT$9max_value17h20dfe90a68802e4bE" @ 1588
;   <u32 as core::num::FromStrRadixHelper>::min_value
    "_ZN53_$LT$u32$u20$as$u20$core..num..FromStrRadixHelper$GT$9min_value17h6d4d7bd580ba329dE" @ 1589
;   <u64 as core::num::FromStrRadixHelper>::checked_add
    "_ZN53_$LT$u64$u20$as$u20$core..num..FromStrRadixHelper$GT$11checked_add17h59ab6d9559db9d1eE" @ 1590
;   <u64 as core::num::FromStrRadixHelper>::checked_mul
    "_ZN53_$LT$u64$u20$as$u20$core..num..FromStrRadixHelper$GT$11checked_mul17h14d20b47f8272c72E" @ 1591
;   <u64 as core::num::FromStrRadixHelper>::checked_sub
    "_ZN53_$LT$u64$u20$as$u20$core..num..FromStrRadixHelper$GT$11checked_sub17h055eef46e6ee44a8E" @ 1592
;   <u64 as core::num::FromStrRadixHelper>::from_u32
    "_ZN53_$LT$u64$u20$as$u20$core..num..FromStrRadixHelper$GT$8from_u3217h613a150e886f13d1E" @ 1593
;   <u64 as core::num::FromStrRadixHelper>::max_value
    "_ZN53_$LT$u64$u20$as$u20$core..num..FromStrRadixHelper$GT$9max_value17h47ba08c4bcfe5bd2E" @ 1594
;   <u64 as core::num::FromStrRadixHelper>::min_value
    "_ZN53_$LT$u64$u20$as$u20$core..num..FromStrRadixHelper$GT$9min_value17h78afef8838bbb3ecE" @ 1595
;   <collections::linked_list::LinkedList<T>>::split_off::_MSG_FILE_LINE
    "_ZN54_$LT$collections..linked_list..LinkedList$LT$T$GT$$GT$9split_off14_MSG_FILE_LINE17h2832c97b2851b479E" @ 1596 DATA
;   <core::any::TypeId as core::fmt::Debug>::fmt
    "_ZN54_$LT$core..any..TypeId$u20$as$u20$core..fmt..Debug$GT$3fmt17h272dc968782538d9E" @ 1597
;   <core::fmt::Error as std::error::Error>::description
    "_ZN54_$LT$core..fmt..Error$u20$as$u20$std..error..Error$GT$11description17he4346742a85bdf33E" @ 1598
;   <i128 as core::num::FromStrRadixHelper>::checked_add
    "_ZN54_$LT$i128$u20$as$u20$core..num..FromStrRadixHelper$GT$11checked_add17ha4b906d54030c38fE" @ 1599
;   <i128 as core::num::FromStrRadixHelper>::checked_mul
    "_ZN54_$LT$i128$u20$as$u20$core..num..FromStrRadixHelper$GT$11checked_mul17hddd43ed7a94689abE" @ 1600
;   <i128 as core::num::FromStrRadixHelper>::checked_sub
    "_ZN54_$LT$i128$u20$as$u20$core..num..FromStrRadixHelper$GT$11checked_sub17h5ff34ee9ac4c9e98E" @ 1601
;   <i128 as core::num::FromStrRadixHelper>::from_u32
    "_ZN54_$LT$i128$u20$as$u20$core..num..FromStrRadixHelper$GT$8from_u3217hf9277309ac54986dE" @ 1602
;   <i128 as core::num::FromStrRadixHelper>::max_value
    "_ZN54_$LT$i128$u20$as$u20$core..num..FromStrRadixHelper$GT$9max_value17hdc4fb4df08252f9fE" @ 1603
;   <i128 as core::num::FromStrRadixHelper>::min_value
    "_ZN54_$LT$i128$u20$as$u20$core..num..FromStrRadixHelper$GT$9min_value17hea3bbbaec7e504fbE" @ 1604
;   <i16 as std::sys::imp::net::IsMinusOne>::is_minus_one
    "_ZN54_$LT$i16$u20$as$u20$std..sys..imp..net..IsMinusOne$GT$12is_minus_one17h12adf3f8095a90a9E" @ 1605
;   <i32 as std::sys::imp::net::IsMinusOne>::is_minus_one
    "_ZN54_$LT$i32$u20$as$u20$std..sys..imp..net..IsMinusOne$GT$12is_minus_one17h15b013bc4fa09484E" @ 1606
;   <i64 as std::sys::imp::net::IsMinusOne>::is_minus_one
    "_ZN54_$LT$i64$u20$as$u20$std..sys..imp..net..IsMinusOne$GT$12is_minus_one17hd7346515f157512cE" @ 1607
;   <rand::XorShiftRng as core::fmt::Debug>::fmt
    "_ZN54_$LT$rand..XorShiftRng$u20$as$u20$core..fmt..Debug$GT$3fmt17haf6a65d5482e1a38E" @ 1608
;   <std::fs::DirEntry as core::fmt::Debug>::fmt
    "_ZN54_$LT$std..fs..DirEntry$u20$as$u20$core..fmt..Debug$GT$3fmt17h380c81e6b9b0ed8aE" @ 1609
;   <std::fs::FileType as core::fmt::Debug>::fmt
    "_ZN54_$LT$std..fs..FileType$u20$as$u20$core..fmt..Debug$GT$3fmt17hec1c41ff6f3f7243E" @ 1610
;   <std::fs::Metadata as core::fmt::Debug>::fmt
    "_ZN54_$LT$std..fs..Metadata$u20$as$u20$core..fmt..Debug$GT$3fmt17h60e837243e33756eE" @ 1611
;   <std::io::SeekFrom as core::fmt::Debug>::fmt
    "_ZN54_$LT$std..io..SeekFrom$u20$as$u20$core..fmt..Debug$GT$3fmt17h3f5a7afeaddedbe0E" @ 1612
;   <std::io::util::Empty as std::io::Read>::read
    "_ZN54_$LT$std..io..util..Empty$u20$as$u20$std..io..Read$GT$4read17h640cc60e3693cdbeE" @ 1613
;   <std::io::util::Sink as std::io::Write>::flush
    "_ZN54_$LT$std..io..util..Sink$u20$as$u20$std..io..Write$GT$5flush17hbc3953567ef4fe62E" @ 1614
;   <std::io::util::Sink as std::io::Write>::write
    "_ZN54_$LT$std..io..util..Sink$u20$as$u20$std..io..Write$GT$5write17h9538b793291ce821E" @ 1615
;   <u128 as core::num::FromStrRadixHelper>::checked_add
    "_ZN54_$LT$u128$u20$as$u20$core..num..FromStrRadixHelper$GT$11checked_add17h61420d04ce2c6514E" @ 1616
;   <u128 as core::num::FromStrRadixHelper>::checked_mul
    "_ZN54_$LT$u128$u20$as$u20$core..num..FromStrRadixHelper$GT$11checked_mul17h54669acc021d705bE" @ 1617
;   <u128 as core::num::FromStrRadixHelper>::checked_sub
    "_ZN54_$LT$u128$u20$as$u20$core..num..FromStrRadixHelper$GT$11checked_sub17h82f1bfc760c71b3cE" @ 1618
;   <u128 as core::num::FromStrRadixHelper>::from_u32
    "_ZN54_$LT$u128$u20$as$u20$core..num..FromStrRadixHelper$GT$8from_u3217h311c4c92a1dab5a5E" @ 1619
;   <u128 as core::num::FromStrRadixHelper>::max_value
    "_ZN54_$LT$u128$u20$as$u20$core..num..FromStrRadixHelper$GT$9max_value17hb472d14ed294c056E" @ 1620
;   <u128 as core::num::FromStrRadixHelper>::min_value
    "_ZN54_$LT$u128$u20$as$u20$core..num..FromStrRadixHelper$GT$9min_value17h883882584073a5e4E" @ 1621
;   <core::fmt::Error as core::fmt::Display>::fmt
    "_ZN55_$LT$core..fmt..Error$u20$as$u20$core..fmt..Display$GT$3fmt17hcdfb0cbd46cc7613E" @ 1622
;   <isize as core::num::FromStrRadixHelper>::checked_add
    "_ZN55_$LT$isize$u20$as$u20$core..num..FromStrRadixHelper$GT$11checked_add17h157d5198342b0b1cE" @ 1623
;   <isize as core::num::FromStrRadixHelper>::checked_mul
    "_ZN55_$LT$isize$u20$as$u20$core..num..FromStrRadixHelper$GT$11checked_mul17h591f7dd561a38078E" @ 1624
;   <isize as core::num::FromStrRadixHelper>::checked_sub
    "_ZN55_$LT$isize$u20$as$u20$core..num..FromStrRadixHelper$GT$11checked_sub17h49fec5ff219d5522E" @ 1625
;   <isize as core::num::FromStrRadixHelper>::from_u32
    "_ZN55_$LT$isize$u20$as$u20$core..num..FromStrRadixHelper$GT$8from_u3217h9914752178978fbfE" @ 1626
;   <isize as core::num::FromStrRadixHelper>::max_value
    "_ZN55_$LT$isize$u20$as$u20$core..num..FromStrRadixHelper$GT$9max_value17h181a78d3cb8971e5E" @ 1627
;   <isize as core::num::FromStrRadixHelper>::min_value
    "_ZN55_$LT$isize$u20$as$u20$core..num..FromStrRadixHelper$GT$9min_value17h974bd9450adfda98E" @ 1628
;   <std::env::VarError as core::fmt::Debug>::fmt
    "_ZN55_$LT$std..env..VarError$u20$as$u20$core..fmt..Debug$GT$3fmt17h2630badaaf75ed1aE" @ 1629
;   <std::io::stdio::Stdin as std::io::Read>::read_exact
    "_ZN55_$LT$std..io..stdio..Stdin$u20$as$u20$std..io..Read$GT$10read_exact17h6dbf4d25e0706425E" @ 1630
;   <std::io::stdio::Stdin as std::io::Read>::read_to_end
    "_ZN55_$LT$std..io..stdio..Stdin$u20$as$u20$std..io..Read$GT$11read_to_end17h015b1d5387ec2f87E" @ 1631
;   <std::io::stdio::Stdin as std::io::Read>::read_to_string
    "_ZN55_$LT$std..io..stdio..Stdin$u20$as$u20$std..io..Read$GT$14read_to_string17h53446e602146cd50E" @ 1632
;   <std::io::stdio::Stdin as std::io::Read>::read
    "_ZN55_$LT$std..io..stdio..Stdin$u20$as$u20$std..io..Read$GT$4read17h943f6e782a868994E" @ 1633
;   <std::io::util::Repeat as std::io::Read>::read
    "_ZN55_$LT$std..io..util..Repeat$u20$as$u20$std..io..Read$GT$4read17h5e5bc9b3a51d899aE" @ 1634
;   <std::net::Shutdown as core::fmt::Debug>::fmt
    "_ZN55_$LT$std..net..Shutdown$u20$as$u20$core..fmt..Debug$GT$3fmt17h0e5791e4f1f28b0cE" @ 1635
;   <std::path::PathBuf as core::fmt::Debug>::fmt
    "_ZN55_$LT$std..path..PathBuf$u20$as$u20$core..fmt..Debug$GT$3fmt17h7d35b486fb132887E" @ 1636
;   <std::path::PathBuf as core::ops::Deref>::deref
    "_ZN55_$LT$std..path..PathBuf$u20$as$u20$core..ops..Deref$GT$5deref17h1f1727bdbf4bd45eE" @ 1637
;   <std::time::Instant as core::fmt::Debug>::fmt
    "_ZN55_$LT$std..time..Instant$u20$as$u20$core..fmt..Debug$GT$3fmt17hb7936bf94948dfedE" @ 1638
;   <usize as core::num::FromStrRadixHelper>::checked_add
    "_ZN55_$LT$usize$u20$as$u20$core..num..FromStrRadixHelper$GT$11checked_add17h176bf95d6cb063a1E" @ 1639
;   <usize as core::num::FromStrRadixHelper>::checked_mul
    "_ZN55_$LT$usize$u20$as$u20$core..num..FromStrRadixHelper$GT$11checked_mul17h3db39c6422337d33E" @ 1640
;   <usize as core::num::FromStrRadixHelper>::checked_sub
    "_ZN55_$LT$usize$u20$as$u20$core..num..FromStrRadixHelper$GT$11checked_sub17hc7e975dd36120128E" @ 1641
;   <usize as core::num::FromStrRadixHelper>::from_u32
    "_ZN55_$LT$usize$u20$as$u20$core..num..FromStrRadixHelper$GT$8from_u3217h9e0d0e9813222ac1E" @ 1642
;   <usize as core::num::FromStrRadixHelper>::max_value
    "_ZN55_$LT$usize$u20$as$u20$core..num..FromStrRadixHelper$GT$9max_value17hd0e0be829b39b97aE" @ 1643
;   <usize as core::num::FromStrRadixHelper>::min_value
    "_ZN55_$LT$usize$u20$as$u20$core..num..FromStrRadixHelper$GT$9min_value17hab91560f68a983eaE" @ 1644
;   <collections::borrow::Cow<'a, B>>::to_mut::_MSG_FILE_LINE
    "_ZN56_$LT$collections..borrow..Cow$LT$$u27$a$C$$u20$B$GT$$GT$6to_mut14_MSG_FILE_LINE17hefa69db0190d42e3E" @ 1645 DATA
;   <core::cmp::Ordering as core::fmt::Debug>::fmt
    "_ZN56_$LT$core..cmp..Ordering$u20$as$u20$core..fmt..Debug$GT$3fmt17h236a9672bdfce20eE" @ 1646
;   <isize as std::sys::imp::net::IsMinusOne>::is_minus_one
    "_ZN56_$LT$isize$u20$as$u20$std..sys..imp..net..IsMinusOne$GT$12is_minus_one17h851c6270e15d69a2E" @ 1647
;   <std::env::VarError as std::error::Error>::description
    "_ZN56_$LT$std..env..VarError$u20$as$u20$std..error..Error$GT$11description17h9380ea5710f86d89E" @ 1648
;   <std::ffi::c_str::CStr as core::cmp::Ord>::cmp
    "_ZN56_$LT$std..ffi..c_str..CStr$u20$as$u20$core..cmp..Ord$GT$3cmp17hf39c311b7307d62cE" @ 1649
;   <std::fs::DirBuilder as core::fmt::Debug>::fmt
    "_ZN56_$LT$std..fs..DirBuilder$u20$as$u20$core..fmt..Debug$GT$3fmt17ha8bc79592319ba06E" @ 1650
;   <std::io::CharsError as core::fmt::Debug>::fmt
    "_ZN56_$LT$std..io..CharsError$u20$as$u20$core..fmt..Debug$GT$3fmt17hee9d63082e4c112eE" @ 1651
;   <std::io::util::Sink as core::fmt::Debug>::fmt
    "_ZN56_$LT$std..io..util..Sink$u20$as$u20$core..fmt..Debug$GT$3fmt17hfda0792547cac205E" @ 1652
;   <std::path::Path as core::cmp::PartialEq>::eq
    "_ZN56_$LT$std..path..Path$u20$as$u20$core..cmp..PartialEq$GT$2eq17hd39dc1386ac0faf8E" @ 1653
;   <std::process::Child as core::fmt::Debug>::fmt
    "_ZN56_$LT$std..process..Child$u20$as$u20$core..fmt..Debug$GT$3fmt17h40fc62ad2bcbbc98E" @ 1654
;   <std::process::Stdio as core::fmt::Debug>::fmt
    "_ZN56_$LT$std..process..Stdio$u20$as$u20$core..fmt..Debug$GT$3fmt17h0e223d2039e1ff60E" @ 1655
;   <std::sys::imp::rand::OsRng as rand::Rng>::fill_bytes
    "_ZN56_$LT$std..sys..imp..rand..OsRng$u20$as$u20$rand..Rng$GT$10fill_bytes17h784cf7c6c9174480E" @ 1656
;   <std::sys::imp::rand::OsRng as rand::Rng>::next_u32
    "_ZN56_$LT$std..sys..imp..rand..OsRng$u20$as$u20$rand..Rng$GT$8next_u3217hc373355409403a67E" @ 1657
;   <std::sys::imp::rand::OsRng as rand::Rng>::next_u64
    "_ZN56_$LT$std..sys..imp..rand..OsRng$u20$as$u20$rand..Rng$GT$8next_u6417h25b89eaaa74f4da9E" @ 1658
;   <std::thread::Thread as core::fmt::Debug>::fmt
    "_ZN56_$LT$std..thread..Thread$u20$as$u20$core..fmt..Debug$GT$3fmt17hd6cf76da9076f28dE" @ 1659
;   <collections::btree::node::Root<K, V>>::pop_level::_MSG_FILE_LINE
    "_ZN57_$LT$collections..btree..node..Root$LT$K$C$$u20$V$GT$$GT$9pop_level14_MSG_FILE_LINE17h0532e372fe64b896E" @ 1660 DATA
;   <core::fmt::Alignment as core::fmt::Debug>::fmt
    "_ZN57_$LT$core..fmt..Alignment$u20$as$u20$core..fmt..Debug$GT$3fmt17he5c25a11bc0f8930E" @ 1661
;   <core::ops::RangeFull as core::fmt::Debug>::fmt
    "_ZN57_$LT$core..ops..RangeFull$u20$as$u20$core..fmt..Debug$GT$3fmt17h55bb4ef6f1e91dc1E" @ 1662
;   <core::str::Utf8Error as core::fmt::Debug>::fmt
    "_ZN57_$LT$core..str..Utf8Error$u20$as$u20$core..fmt..Debug$GT$3fmt17hb46912d206953f3fE" @ 1663
;   <std::env::VarError as core::fmt::Display>::fmt
    "_ZN57_$LT$std..env..VarError$u20$as$u20$core..fmt..Display$GT$3fmt17h7920fd60dd5c1a0cE" @ 1664
;   <std::fs::OpenOptions as core::fmt::Debug>::fmt
    "_ZN57_$LT$std..fs..OpenOptions$u20$as$u20$core..fmt..Debug$GT$3fmt17h7949170367adfdbbE" @ 1665
;   <std::fs::Permissions as core::fmt::Debug>::fmt
    "_ZN57_$LT$std..fs..Permissions$u20$as$u20$core..fmt..Debug$GT$3fmt17hd6a7e63d1a8f8b35E" @ 1666
;   <std::io::CharsError as std::error::Error>::description
    "_ZN57_$LT$std..io..CharsError$u20$as$u20$std..error..Error$GT$11description17h4dd30371948156cfE" @ 1667
;   <std::io::CharsError as std::error::Error>::cause
    "_ZN57_$LT$std..io..CharsError$u20$as$u20$std..error..Error$GT$5cause17hc66b82534bc27887E" @ 1668
;   <std::io::error::Repr as core::fmt::Debug>::fmt
    "_ZN57_$LT$std..io..error..Repr$u20$as$u20$core..fmt..Debug$GT$3fmt17h70578404fa39edb8E" @ 1669
;   <std::io::stdio::Stderr as std::io::Write>::flush
    "_ZN57_$LT$std..io..stdio..Stderr$u20$as$u20$std..io..Write$GT$5flush17ha307caf174d6e678E" @ 1670
;   <std::io::stdio::Stderr as std::io::Write>::write
    "_ZN57_$LT$std..io..stdio..Stderr$u20$as$u20$std..io..Write$GT$5write17h2fab8410d2373fceE" @ 1671
;   <std::io::stdio::Stderr as std::io::Write>::write_all
    "_ZN57_$LT$std..io..stdio..Stderr$u20$as$u20$std..io..Write$GT$9write_all17hea320bc77718bac7E" @ 1672
;   <std::io::stdio::Stderr as std::io::Write>::write_fmt
    "_ZN57_$LT$std..io..stdio..Stderr$u20$as$u20$std..io..Write$GT$9write_fmt17hefb27259618725ebE" @ 1673
;   <std::io::stdio::Stdout as std::io::Write>::flush
    "_ZN57_$LT$std..io..stdio..Stdout$u20$as$u20$std..io..Write$GT$5flush17h99fa2365c70bdffcE" @ 1674
;   <std::io::stdio::Stdout as std::io::Write>::write
    "_ZN57_$LT$std..io..stdio..Stdout$u20$as$u20$std..io..Write$GT$5write17h72508a18324f884cE" @ 1675
;   <std::io::stdio::Stdout as std::io::Write>::write_all
    "_ZN57_$LT$std..io..stdio..Stdout$u20$as$u20$std..io..Write$GT$9write_all17h7ec1a420e727d697E" @ 1676
;   <std::io::stdio::Stdout as std::io::Write>::write_fmt
    "_ZN57_$LT$std..io..stdio..Stdout$u20$as$u20$std..io..Write$GT$9write_fmt17h4d47240d607346c2E" @ 1677
;   <std::io::util::Empty as core::fmt::Debug>::fmt
    "_ZN57_$LT$std..io..util..Empty$u20$as$u20$core..fmt..Debug$GT$3fmt17hc4a120dc408d612eE" @ 1678
;   <std::io::util::Empty as std::io::BufRead>::consume
    "_ZN57_$LT$std..io..util..Empty$u20$as$u20$std..io..BufRead$GT$7consume17h0fcd2e7654c00a7bE" @ 1679
;   <std::io::util::Empty as std::io::BufRead>::fill_buf
    "_ZN57_$LT$std..io..util..Empty$u20$as$u20$std..io..BufRead$GT$8fill_buf17h376f11f635ac1d1eE" @ 1680
;   <std::net::LookupHost as core::fmt::Debug>::fmt
    "_ZN57_$LT$std..net..LookupHost$u20$as$u20$core..fmt..Debug$GT$3fmt17hab4bb2aee99511eeE" @ 1681
;   <std::net::ip::IpAddr as core::fmt::Debug>::fmt
    "_ZN57_$LT$std..net..ip..IpAddr$u20$as$u20$core..fmt..Debug$GT$3fmt17h621ec1cec3b294fdE" @ 1682
;   <std::net::ip::Ipv4Addr as core::cmp::Ord>::cmp
    "_ZN57_$LT$std..net..ip..Ipv4Addr$u20$as$u20$core..cmp..Ord$GT$3cmp17he2c391029c33cf2aE" @ 1683
;   <std::net::ip::Ipv6Addr as core::cmp::Ord>::cmp
    "_ZN57_$LT$std..net..ip..Ipv6Addr$u20$as$u20$core..cmp..Ord$GT$3cmp17h404981d848f4d0e2E" @ 1684
;   <std::os::raw::c_void as core::fmt::Debug>::fmt
    "_ZN57_$LT$std..os..raw..c_void$u20$as$u20$core..fmt..Debug$GT$3fmt17hdf1465c6fce4d65eE" @ 1685
;   <std::path::Path as core::cmp::PartialOrd>::partial_cmp
    "_ZN57_$LT$std..path..Path$u20$as$u20$core..cmp..PartialOrd$GT$11partial_cmp17h76596fcea97295b0E" @ 1686
;   <std::process::Output as core::fmt::Debug>::fmt
    "_ZN57_$LT$std..process..Output$u20$as$u20$core..fmt..Debug$GT$3fmt17h5daa3a5fee47a44cE" @ 1687
;   <std::rand::ThreadRng as core::fmt::Debug>::fmt
    "_ZN57_$LT$std..rand..ThreadRng$u20$as$u20$core..fmt..Debug$GT$3fmt17h696d2636ea841fe0E" @ 1688
;   <std::thread::Builder as core::fmt::Debug>::fmt
    "_ZN57_$LT$std..thread..Builder$u20$as$u20$core..fmt..Debug$GT$3fmt17h6ecf20a81cc129abE" @ 1689
;   <core::num::FpCategory as core::fmt::Debug>::fmt
    "_ZN58_$LT$core..num..FpCategory$u20$as$u20$core..fmt..Debug$GT$3fmt17h51b9c9ba4956b7a7E" @ 1690
;   <core::str::Utf8Error as std::error::Error>::description
    "_ZN58_$LT$core..str..Utf8Error$u20$as$u20$std..error..Error$GT$11description17h4558650c3a3922f9E" @ 1691
;   <rand::isaac::IsaacRng as core::fmt::Debug>::fmt
    "_ZN58_$LT$rand..isaac..IsaacRng$u20$as$u20$core..fmt..Debug$GT$3fmt17hcc837e76e61ccef8E" @ 1692
;   <std::ffi::c_str::CStr as core::fmt::Debug>::fmt
    "_ZN58_$LT$std..ffi..c_str..CStr$u20$as$u20$core..fmt..Debug$GT$3fmt17h704cfac358cb4e1aE" @ 1693
;   <std::io::CharsError as core::fmt::Display>::fmt
    "_ZN58_$LT$std..io..CharsError$u20$as$u20$core..fmt..Display$GT$3fmt17h4d080153877a692bE" @ 1694
;   <std::io::error::Error as core::fmt::Debug>::fmt
    "_ZN58_$LT$std..io..error..Error$u20$as$u20$core..fmt..Debug$GT$3fmt17h1b4fb97d4fee8b57E" @ 1695
;   <std::io::stdio::Stdin as core::fmt::Debug>::fmt
    "_ZN58_$LT$std..io..stdio..Stdin$u20$as$u20$core..fmt..Debug$GT$3fmt17hfdf829e794cb47bfE" @ 1696
;   <std::io::stdio::StdinRaw as std::io::Read>::read_to_end
    "_ZN58_$LT$std..io..stdio..StdinRaw$u20$as$u20$std..io..Read$GT$11read_to_end17hf94360b5aa1dab33E" @ 1697
;   <std::io::stdio::StdinRaw as std::io::Read>::read
    "_ZN58_$LT$std..io..stdio..StdinRaw$u20$as$u20$std..io..Read$GT$4read17h1b5413bec48b175dE" @ 1698
;   <std::io::util::Repeat as core::fmt::Debug>::fmt
    "_ZN58_$LT$std..io..util..Repeat$u20$as$u20$core..fmt..Debug$GT$3fmt17hbe6fdc72ac8bcd07E" @ 1699
;   <std::net::tcp::TcpStream as std::io::Read>::read_to_end
    "_ZN58_$LT$std..net..tcp..TcpStream$u20$as$u20$std..io..Read$GT$11read_to_end17h45cfecd1d6299e11E" @ 1700
;   <std::net::tcp::TcpStream as std::io::Read>::read
    "_ZN58_$LT$std..net..tcp..TcpStream$u20$as$u20$std..io..Read$GT$4read17h1c950e2b2069d484E" @ 1701
;   <std::process::Command as core::fmt::Debug>::fmt
    "_ZN58_$LT$std..process..Command$u20$as$u20$core..fmt..Debug$GT$3fmt17h8130235ecb7dbeb5E" @ 1702
;   <std::sync::once::Once as core::fmt::Debug>::fmt
    "_ZN58_$LT$std..sync..once..Once$u20$as$u20$core..fmt..Debug$GT$3fmt17ha548394a2417e456E" @ 1703
;   <std::sys::imp::os::Env as core::ops::Drop>::drop
    "_ZN58_$LT$std..sys..imp..os..Env$u20$as$u20$core..ops..Drop$GT$4drop17h94856749ef29c7e4E" @ 1704
;   <std::thread::ThreadId as core::fmt::Debug>::fmt
    "_ZN58_$LT$std..thread..ThreadId$u20$as$u20$core..fmt..Debug$GT$3fmt17h4278dc11339180d7E" @ 1705
;   <std::time::SystemTime as core::fmt::Debug>::fmt
    "_ZN58_$LT$std..time..SystemTime$u20$as$u20$core..fmt..Debug$GT$3fmt17h69dbe7eaf146a335E" @ 1706
;   <core::hash::sip::State as core::fmt::Debug>::fmt
    "_ZN59_$LT$core..hash..sip..State$u20$as$u20$core..fmt..Debug$GT$3fmt17h60839cdc0f752cacE" @ 1707
;   <core::iter::ChainState as core::fmt::Debug>::fmt
    "_ZN59_$LT$core..iter..ChainState$u20$as$u20$core..fmt..Debug$GT$3fmt17hf86b170ee263f2d1E" @ 1708
;   <core::str::Utf8Error as core::fmt::Display>::fmt
    "_ZN59_$LT$core..str..Utf8Error$u20$as$u20$core..fmt..Display$GT$3fmt17h88267b87a5bb2941E" @ 1709
;   <f32 as core::num::dec2flt::rawfp::RawFloat>::integer_decode
    "_ZN59_$LT$f32$u20$as$u20$core..num..dec2flt..rawfp..RawFloat$GT$14integer_decode17h6213b61a5327df34E" @ 1710
;   <f32 as core::num::dec2flt::rawfp::RawFloat>::short_fast_pow10
    "_ZN59_$LT$f32$u20$as$u20$core..num..dec2flt..rawfp..RawFloat$GT$16short_fast_pow1017h8822fbbd1d48ceafE" @ 1711
;   <f32 as core::num::dec2flt::rawfp::RawFloat>::unpack
    "_ZN59_$LT$f32$u20$as$u20$core..num..dec2flt..rawfp..RawFloat$GT$6unpack17h25776b622dd4f9d2E" @ 1712
;   <f32 as core::num::dec2flt::rawfp::RawFloat>::from_int
    "_ZN59_$LT$f32$u20$as$u20$core..num..dec2flt..rawfp..RawFloat$GT$8from_int17hd654e56953562458E" @ 1713
;   <f32 as core::num::dec2flt::rawfp::RawFloat>::from_bits
    "_ZN59_$LT$f32$u20$as$u20$core..num..dec2flt..rawfp..RawFloat$GT$9from_bits17h8c5e8d14a7b7b230E" @ 1714
;   <f32 as core::num::dec2flt::rawfp::RawFloat>::transmute
    "_ZN59_$LT$f32$u20$as$u20$core..num..dec2flt..rawfp..RawFloat$GT$9transmute17h7daa2562a10f8ff1E" @ 1715
;   <f64 as core::num::dec2flt::rawfp::RawFloat>::integer_decode
    "_ZN59_$LT$f64$u20$as$u20$core..num..dec2flt..rawfp..RawFloat$GT$14integer_decode17h08dabb34437d7e9cE" @ 1716
;   <f64 as core::num::dec2flt::rawfp::RawFloat>::short_fast_pow10
    "_ZN59_$LT$f64$u20$as$u20$core..num..dec2flt..rawfp..RawFloat$GT$16short_fast_pow1017h128921cf2b02b6ccE" @ 1717
;   <f64 as core::num::dec2flt::rawfp::RawFloat>::unpack
    "_ZN59_$LT$f64$u20$as$u20$core..num..dec2flt..rawfp..RawFloat$GT$6unpack17hd9ae9e6fc82cd973E" @ 1718
;   <f64 as core::num::dec2flt::rawfp::RawFloat>::from_int
    "_ZN59_$LT$f64$u20$as$u20$core..num..dec2flt..rawfp..RawFloat$GT$8from_int17hdd09320419c6e766E" @ 1719
;   <f64 as core::num::dec2flt::rawfp::RawFloat>::from_bits
    "_ZN59_$LT$f64$u20$as$u20$core..num..dec2flt..rawfp..RawFloat$GT$9from_bits17h8d38a980630fc887E" @ 1720
;   <f64 as core::num::dec2flt::rawfp::RawFloat>::transmute
    "_ZN59_$LT$f64$u20$as$u20$core..num..dec2flt..rawfp..RawFloat$GT$9transmute17h4298aed90da14cf7E" @ 1721
;   <i128 as compiler_builtins::reimpls::AbsExt>::iabs
    "_ZN59_$LT$i128$u20$as$u20$compiler_builtins..reimpls..AbsExt$GT$4iabs17h4957c6edc5127142E" @ 1722
;   <i128 as compiler_builtins::reimpls::AbsExt>::uabs
    "_ZN59_$LT$i128$u20$as$u20$compiler_builtins..reimpls..AbsExt$GT$4uabs17hf8fdda4903b7abe1E" @ 1723
;   <i128 as compiler_builtins::reimpls::NegExt>::unchecked_neg
    "_ZN59_$LT$i128$u20$as$u20$compiler_builtins..reimpls..NegExt$GT$13unchecked_neg17h8994bafc4fa40593E" @ 1724
;   <std::io::error::Custom as core::fmt::Debug>::fmt
    "_ZN59_$LT$std..io..error..Custom$u20$as$u20$core..fmt..Debug$GT$3fmt17hcbcb6734d645f1f0E" @ 1725
;   <std::io::error::Error as std::error::Error>::description
    "_ZN59_$LT$std..io..error..Error$u20$as$u20$std..error..Error$GT$11description17he443582119a98a76E" @ 1726
;   <std::io::error::Error as std::error::Error>::cause
    "_ZN59_$LT$std..io..error..Error$u20$as$u20$std..error..Error$GT$5cause17hb44a0d39c9916124E" @ 1727
;   <std::io::stdio::Stderr as core::fmt::Debug>::fmt
    "_ZN59_$LT$std..io..stdio..Stderr$u20$as$u20$core..fmt..Debug$GT$3fmt17h4c6bc50db3ce8f02E" @ 1728
;   <std::io::stdio::Stdout as core::fmt::Debug>::fmt
    "_ZN59_$LT$std..io..stdio..Stdout$u20$as$u20$core..fmt..Debug$GT$3fmt17h4fbeee30424ff2fcE" @ 1729
;   <std::net::ip::IpAddr as core::fmt::Display>::fmt
    "_ZN59_$LT$std..net..ip..IpAddr$u20$as$u20$core..fmt..Display$GT$3fmt17h3f2ffd2685bfc915E" @ 1730
;   <std::net::ip::Ipv4Addr as core::fmt::Debug>::fmt
    "_ZN59_$LT$std..net..ip..Ipv4Addr$u20$as$u20$core..fmt..Debug$GT$3fmt17hfb963e9a8dfbf428E" @ 1731
;   <std::net::ip::Ipv6Addr as core::fmt::Debug>::fmt
    "_ZN59_$LT$std..net..ip..Ipv6Addr$u20$as$u20$core..fmt..Debug$GT$3fmt17h9fe008d0d74bbd07E" @ 1732
;   <std::net::tcp::TcpStream as std::io::Write>::flush
    "_ZN59_$LT$std..net..tcp..TcpStream$u20$as$u20$std..io..Write$GT$5flush17hf7e243c0df2b9520E" @ 1733
;   <std::net::tcp::TcpStream as std::io::Write>::write
    "_ZN59_$LT$std..net..tcp..TcpStream$u20$as$u20$std..io..Write$GT$5write17h823fdf2816102d43E" @ 1734
;   <std::path::PathBuf as core::cmp::PartialEq>::eq
    "_ZN59_$LT$std..path..PathBuf$u20$as$u20$core..cmp..PartialEq$GT$2eq17hc463e69f6d8ea897E" @ 1735
;   <std::process::ChildStderr as std::io::Read>::read_to_end
    "_ZN59_$LT$std..process..ChildStderr$u20$as$u20$std..io..Read$GT$11read_to_end17ha6fd2d305114da29E" @ 1736
;   <std::process::ChildStderr as std::io::Read>::read
    "_ZN59_$LT$std..process..ChildStderr$u20$as$u20$std..io..Read$GT$4read17h882964d7b04bba7aE" @ 1737
;   <std::process::ChildStdin as std::io::Write>::flush
    "_ZN59_$LT$std..process..ChildStdin$u20$as$u20$std..io..Write$GT$5flush17ha9f0f25ebb4879cbE" @ 1738
;   <std::process::ChildStdin as std::io::Write>::write
    "_ZN59_$LT$std..process..ChildStdin$u20$as$u20$std..io..Write$GT$5write17h95525e317e0c0e59E" @ 1739
;   <std::process::ChildStdout as std::io::Read>::read_to_end
    "_ZN59_$LT$std..process..ChildStdout$u20$as$u20$std..io..Read$GT$11read_to_end17h07b6540f1f87022bE" @ 1740
;   <std::process::ChildStdout as std::io::Read>::read
    "_ZN59_$LT$std..process..ChildStdout$u20$as$u20$std..io..Read$GT$4read17hebddca2ca9f57bc4E" @ 1741
;   <std::sync::once::Finish as core::ops::Drop>::drop
    "_ZN59_$LT$std..sync..once..Finish$u20$as$u20$core..ops..Drop$GT$4drop17h3f10b6c0798cb37fE" @ 1742
;   alloc::oom::imp::set_oom_handler
    _ZN5alloc3oom3imp15set_oom_handler17h701224e4fd006ce8E @ 1743
;   alloc::oom::oom
    _ZN5alloc3oom3oom17h16d8c757d43557a4E @ 1744
;   alloc::str::from_boxed_utf8_unchecked
    _ZN5alloc3str25from_boxed_utf8_unchecked17h9a83e3216d761615E @ 1745
;   alloc::heap::check_size_and_alignment::_FILE_LINE
    _ZN5alloc4heap24check_size_and_alignment10_FILE_LINE17h2b40d1593223d8e0E @ 1746 DATA
;   alloc::heap::check_size_and_alignment::_FILE_LINE
    _ZN5alloc4heap24check_size_and_alignment10_FILE_LINE17h6d556d159973821cE @ 1747 DATA
;   alloc::heap::check_size_and_alignment::_MSG_FILE_LINE
    _ZN5alloc4heap24check_size_and_alignment14_MSG_FILE_LINE17hc3efbe611e18bf5cE @ 1748 DATA
;   alloc::heap::check_size_and_alignment::__STATIC_FMTSTR
    _ZN5alloc4heap24check_size_and_alignment15__STATIC_FMTSTR17h1b5f258b9113d477E @ 1749 DATA
;   alloc::heap::check_size_and_alignment::__STATIC_FMTSTR
    _ZN5alloc4heap24check_size_and_alignment15__STATIC_FMTSTR17h5ff575abbdec2762E @ 1750 DATA
;   alloc::boxed::make_place::_MSG_FILE_LINE
    _ZN5alloc5boxed10make_place14_MSG_FILE_LINE17hf0a98a0a9651b17eE @ 1751 DATA
;   alloc::raw_vec::alloc_guard::_MSG_FILE_LINE
    _ZN5alloc7raw_vec11alloc_guard14_MSG_FILE_LINE17h09cdafa612ab5418E @ 1752 DATA
;   <collections::btree::map::BTreeMap<K, V>>::fix_right_edge::_MSG_FILE_LINE
    "_ZN60_$LT$collections..btree..map..BTreeMap$LT$K$C$$u20$V$GT$$GT$14fix_right_edge14_MSG_FILE_LINE17he733a0e475b29887E" @ 1753 DATA
;   <collections::btree::map::BTreeMap<K, V>>::split_off::_MSG_FILE_LINE
    "_ZN60_$LT$collections..btree..map..BTreeMap$LT$K$C$$u20$V$GT$$GT$9split_off14_MSG_FILE_LINE17h2eb79bb1f30da260E" @ 1754 DATA
;   <core::cell::BorrowError as core::fmt::Debug>::fmt
    "_ZN60_$LT$core..cell..BorrowError$u20$as$u20$core..fmt..Debug$GT$3fmt17heb61fdb9deaa8b1eE" @ 1755
;   <core::char::EscapeDebug as core::fmt::Debug>::fmt
    "_ZN60_$LT$core..char..EscapeDebug$u20$as$u20$core..fmt..Debug$GT$3fmt17he4fedd235839fefaE" @ 1756
;   <core::num::IntErrorKind as core::fmt::Debug>::fmt
    "_ZN60_$LT$core..num..IntErrorKind$u20$as$u20$core..fmt..Debug$GT$3fmt17h4fb925a8d2b5a5edE" @ 1757
;   <rand::chacha::ChaChaRng as core::fmt::Debug>::fmt
    "_ZN60_$LT$rand..chacha..ChaChaRng$u20$as$u20$core..fmt..Debug$GT$3fmt17h1719664e6e05d77eE" @ 1758
;   <rand::isaac::Isaac64Rng as core::fmt::Debug>::fmt
    "_ZN60_$LT$rand..isaac..Isaac64Rng$u20$as$u20$core..fmt..Debug$GT$3fmt17h7f08b0bc531d2fbaE" @ 1759
;   <rand::isaac::IsaacRng as core::clone::Clone>::clone
    "_ZN60_$LT$rand..isaac..IsaacRng$u20$as$u20$core..clone..Clone$GT$5clone17hb067265c8d74803bE" @ 1760
;   <std::ffi::os_str::OsStr as core::fmt::Debug>::fmt
    "_ZN60_$LT$std..ffi..os_str..OsStr$u20$as$u20$core..fmt..Debug$GT$3fmt17heb265c8e7b1e1400E" @ 1761
;   <std::io::error::Error as core::fmt::Display>::fmt
    "_ZN60_$LT$std..io..error..Error$u20$as$u20$core..fmt..Display$GT$3fmt17h243084b798c9283dE" @ 1762
;   <std::io::stdio::StderrRaw as std::io::Write>::flush
    "_ZN60_$LT$std..io..stdio..StderrRaw$u20$as$u20$std..io..Write$GT$5flush17h45209ebe5c170480E" @ 1763
;   <std::io::stdio::StderrRaw as std::io::Write>::write
    "_ZN60_$LT$std..io..stdio..StderrRaw$u20$as$u20$std..io..Write$GT$5write17habcfac7dbacb4d15E" @ 1764
;   <std::io::stdio::StdoutRaw as std::io::Write>::flush
    "_ZN60_$LT$std..io..stdio..StdoutRaw$u20$as$u20$std..io..Write$GT$5flush17h1fd42b157394afadE" @ 1765
;   <std::io::stdio::StdoutRaw as std::io::Write>::write
    "_ZN60_$LT$std..io..stdio..StdoutRaw$u20$as$u20$std..io..Write$GT$5write17ha32e089b3347ea5dE" @ 1766
;   <std::path::PathBuf as core::cmp::PartialOrd>::partial_cmp
    "_ZN60_$LT$std..path..PathBuf$u20$as$u20$core..cmp..PartialOrd$GT$11partial_cmp17h88b0281bf708a738E" @ 1767
;   <std::sys::imp::fs::File as core::fmt::Debug>::fmt
    "_ZN60_$LT$std..sys..imp..fs..File$u20$as$u20$core..fmt..Debug$GT$3fmt17h7d1ba3a1c9144e2bE" @ 1768
;   <alloc::rc::Weak<T> as core::fmt::Debug>::fmt::__STATIC_FMTSTR
    "_ZN61_$LT$alloc..rc..Weak$LT$T$GT$$u20$as$u20$core..fmt..Debug$GT$3fmt15__STATIC_FMTSTR17h1bd0d1ee5c75e431E" @ 1769 DATA
;   <core::cell::BorrowError as std::error::Error>::description
    "_ZN61_$LT$core..cell..BorrowError$u20$as$u20$std..error..Error$GT$11description17h00f2b461af97ed7cE" @ 1770
;   <core::num::ParseIntError as core::fmt::Debug>::fmt
    "_ZN61_$LT$core..num..ParseIntError$u20$as$u20$core..fmt..Debug$GT$3fmt17h3373f59cc2bd8b23E" @ 1771
;   <core::num::diy_float::Fp as core::fmt::Debug>::fmt
    "_ZN61_$LT$core..num..diy_float..Fp$u20$as$u20$core..fmt..Debug$GT$3fmt17h961a5bd79bb40559E" @ 1772
;   <core::num::flt2dec::Sign as core::fmt::Debug>::fmt
    "_ZN61_$LT$core..num..flt2dec..Sign$u20$as$u20$core..fmt..Debug$GT$3fmt17h1c55f47e985a8187E" @ 1773
;   <i128 as compiler_builtins::reimpls::LargeInt>::from_parts
    "_ZN61_$LT$i128$u20$as$u20$compiler_builtins..reimpls..LargeInt$GT$10from_parts17hf8827bf9cb6f6c63E" @ 1774
;   <i128 as compiler_builtins::reimpls::LargeInt>::low
    "_ZN61_$LT$i128$u20$as$u20$compiler_builtins..reimpls..LargeInt$GT$3low17hdcf73dc6bc838e36E" @ 1775
;   <i128 as compiler_builtins::reimpls::LargeInt>::high
    "_ZN61_$LT$i128$u20$as$u20$compiler_builtins..reimpls..LargeInt$GT$4high17h89b38fb9509fdf78E" @ 1776
;   <std::env::JoinPathsError as core::fmt::Debug>::fmt
    "_ZN61_$LT$std..env..JoinPathsError$u20$as$u20$core..fmt..Debug$GT$3fmt17h4be8e14db37aad34E" @ 1777
;   <std::ffi::c_str::CString as core::fmt::Debug>::fmt
    "_ZN61_$LT$std..ffi..c_str..CString$u20$as$u20$core..fmt..Debug$GT$3fmt17hc1e27c88ae098d52E" @ 1778
;   <std::ffi::c_str::CString as core::ops::Deref>::deref
    "_ZN61_$LT$std..ffi..c_str..CString$u20$as$u20$core..ops..Deref$GT$5deref17h7de7fea013fe1be7E" @ 1779
;   <std::net::ip::Ipv4Addr as core::clone::Clone>::clone
    "_ZN61_$LT$std..net..ip..Ipv4Addr$u20$as$u20$core..clone..Clone$GT$5clone17hc2715803cadb1b8eE" @ 1780
;   <std::net::ip::Ipv4Addr as core::fmt::Display>::fmt
    "_ZN61_$LT$std..net..ip..Ipv4Addr$u20$as$u20$core..fmt..Display$GT$3fmt17he0f9fac7f51e525fE" @ 1781
;   <std::net::ip::Ipv6Addr as core::clone::Clone>::clone
    "_ZN61_$LT$std..net..ip..Ipv6Addr$u20$as$u20$core..clone..Clone$GT$5clone17hc2de0bf480d21e64E" @ 1782
;   <std::net::ip::Ipv6Addr as core::fmt::Display>::fmt
    "_ZN61_$LT$std..net..ip..Ipv6Addr$u20$as$u20$core..fmt..Display$GT$3fmt17hfe361dc12daf1634E" @ 1783
;   <std::net::tcp::TcpStream as core::fmt::Debug>::fmt
    "_ZN61_$LT$std..net..tcp..TcpStream$u20$as$u20$core..fmt..Debug$GT$3fmt17h562e16c137c9ef9cE" @ 1784
;   <std::net::udp::UdpSocket as core::fmt::Debug>::fmt
    "_ZN61_$LT$std..net..udp..UdpSocket$u20$as$u20$core..fmt..Debug$GT$3fmt17h9f89055fbc1b5a0fE" @ 1785
;   <std::path::PathBuf as core::default::Default>::default
    "_ZN61_$LT$std..path..PathBuf$u20$as$u20$core..default..Default$GT$7default17hfcd881e29a0fc5d2E" @ 1786
;   <std::process::ChildStdin as core::fmt::Debug>::fmt
    "_ZN61_$LT$std..process..ChildStdin$u20$as$u20$core..fmt..Debug$GT$3fmt17h31f1f4609264e6e7E" @ 1787
;   <std::process::ExitStatus as core::fmt::Debug>::fmt
    "_ZN61_$LT$std..process..ExitStatus$u20$as$u20$core..fmt..Debug$GT$3fmt17h7495b6144704a48bE" @ 1788
;   <std::sys::imp::args::Args as core::ops::Drop>::drop
    "_ZN61_$LT$std..sys..imp..args..Args$u20$as$u20$core..ops..Drop$GT$4drop17h25ca8476181bca9cE" @ 1789
;   <u128 as compiler_builtins::reimpls::LargeInt>::from_parts
    "_ZN61_$LT$u128$u20$as$u20$compiler_builtins..reimpls..LargeInt$GT$10from_parts17hf3db01b5c0286d54E" @ 1790
;   <u128 as compiler_builtins::reimpls::LargeInt>::low
    "_ZN61_$LT$u128$u20$as$u20$compiler_builtins..reimpls..LargeInt$GT$3low17h97e30f3ab5284a81E" @ 1791
;   <u128 as compiler_builtins::reimpls::LargeInt>::high
    "_ZN61_$LT$u128$u20$as$u20$compiler_builtins..reimpls..LargeInt$GT$4high17ha4b0d29b523adab3E" @ 1792
;   <&'a std::fs::File as std::io::Read>::read_to_end
    "_ZN62_$LT$$RF$$u27$a$u20$std..fs..File$u20$as$u20$std..io..Read$GT$11read_to_end17h6ef0d4e8128bbdbdE" @ 1793
;   <&'a std::fs::File as std::io::Read>::read
    "_ZN62_$LT$$RF$$u27$a$u20$std..fs..File$u20$as$u20$std..io..Read$GT$4read17h75208da28f2e34e1E" @ 1794
;   <&'a std::fs::File as std::io::Seek>::seek
    "_ZN62_$LT$$RF$$u27$a$u20$std..fs..File$u20$as$u20$std..io..Seek$GT$4seek17hf0d03e7bb4cbbb07E" @ 1795
;   <alloc::arc::Weak<T> as core::fmt::Debug>::fmt::__STATIC_FMTSTR
    "_ZN62_$LT$alloc..arc..Weak$LT$T$GT$$u20$as$u20$core..fmt..Debug$GT$3fmt15__STATIC_FMTSTR17hf47b4ac7c0d6ea1aE" @ 1796 DATA
;   <collections::binary_heap::Hole<'a, T>>::get::_MSG_FILE_LINE
    "_ZN62_$LT$collections..binary_heap..Hole$LT$$u27$a$C$$u20$T$GT$$GT$3get14_MSG_FILE_LINE17ha6648cb87274d6e4E" @ 1797 DATA
;   <collections::binary_heap::Hole<'a, T>>::get::_MSG_FILE_LINE
    "_ZN62_$LT$collections..binary_heap..Hole$LT$$u27$a$C$$u20$T$GT$$GT$3get14_MSG_FILE_LINE17hc60fd9269462906eE" @ 1798 DATA
;   <collections::binary_heap::Hole<'a, T>>::new::_MSG_FILE_LINE
    "_ZN62_$LT$collections..binary_heap..Hole$LT$$u27$a$C$$u20$T$GT$$GT$3new14_MSG_FILE_LINE17h94590e93318f5528E" @ 1799 DATA
;   <collections::binary_heap::Hole<'a, T>>::move_to::_MSG_FILE_LINE
    "_ZN62_$LT$collections..binary_heap..Hole$LT$$u27$a$C$$u20$T$GT$$GT$7move_to14_MSG_FILE_LINE17h97fe586862b7abc8E" @ 1800 DATA
;   <collections::binary_heap::Hole<'a, T>>::move_to::_MSG_FILE_LINE
    "_ZN62_$LT$collections..binary_heap..Hole$LT$$u27$a$C$$u20$T$GT$$GT$7move_to14_MSG_FILE_LINE17hf0ee1e938078c42aE" @ 1801 DATA
;   <core::cell::BorrowError as core::fmt::Display>::fmt
    "_ZN62_$LT$core..cell..BorrowError$u20$as$u20$core..fmt..Display$GT$3fmt17h16be722877efe2a7E" @ 1802
;   <core::char::EscapeDebug as core::fmt::Display>::fmt
    "_ZN62_$LT$core..char..EscapeDebug$u20$as$u20$core..fmt..Display$GT$3fmt17hf1f80d38886d3e0aE" @ 1803
;   <core::char::EscapeDefault as core::fmt::Debug>::fmt
    "_ZN62_$LT$core..char..EscapeDefault$u20$as$u20$core..fmt..Debug$GT$3fmt17h0e051f1d8fa6c454E" @ 1804
;   <core::char::EscapeUnicode as core::fmt::Debug>::fmt
    "_ZN62_$LT$core..char..EscapeUnicode$u20$as$u20$core..fmt..Debug$GT$3fmt17h895144c985aa11deE" @ 1805
;   <core::num::ParseIntError as std::error::Error>::description
    "_ZN62_$LT$core..num..ParseIntError$u20$as$u20$std..error..Error$GT$11description17h0d9a6dbc1a2a700fE" @ 1806
;   <core::num::bignum::Big32x40 as core::cmp::Ord>::cmp
    "_ZN62_$LT$core..num..bignum..Big32x40$u20$as$u20$core..cmp..Ord$GT$3cmp17h75a42fced5f1064aE" @ 1807
;   <core::str::ParseBoolError as core::fmt::Debug>::fmt
    "_ZN62_$LT$core..str..ParseBoolError$u20$as$u20$core..fmt..Debug$GT$3fmt17h13a78518b87cd47aE" @ 1808
;   <f32 as compiler_builtins::reimpls::FloatStuff>::get_exponent
    "_ZN62_$LT$f32$u20$as$u20$compiler_builtins..reimpls..FloatStuff$GT$12get_exponent17h0ddae442ed7741c9E" @ 1809
;   <f32 as compiler_builtins::reimpls::FloatStuff>::to_bytes
    "_ZN62_$LT$f32$u20$as$u20$compiler_builtins..reimpls..FloatStuff$GT$8to_bytes17h8de84014c14b750aE" @ 1810
;   <f64 as compiler_builtins::reimpls::FloatStuff>::get_exponent
    "_ZN62_$LT$f64$u20$as$u20$compiler_builtins..reimpls..FloatStuff$GT$12get_exponent17hb7fe3974d01cb8beE" @ 1811
;   <f64 as compiler_builtins::reimpls::FloatStuff>::to_bytes
    "_ZN62_$LT$f64$u20$as$u20$compiler_builtins..reimpls..FloatStuff$GT$8to_bytes17hfcc9548d097a81f2E" @ 1812
;   <i8 as rand::distributions::range::SampleRange>::construct_range
    "_ZN62_$LT$i8$u20$as$u20$rand..distributions..range..SampleRange$GT$15construct_range17hc0a86c40fe09bea6E" @ 1813
;   <rand::isaac::Isaac64Rng as core::clone::Clone>::clone
    "_ZN62_$LT$rand..isaac..Isaac64Rng$u20$as$u20$core..clone..Clone$GT$5clone17hfceb88fe97b2d87aE" @ 1814
;   <std::ascii::EscapeDefault as core::fmt::Debug>::fmt
    "_ZN62_$LT$std..ascii..EscapeDefault$u20$as$u20$core..fmt..Debug$GT$3fmt17ha0b7c05368706d4eE" @ 1815
;   <std::env::JoinPathsError as std::error::Error>::description
    "_ZN62_$LT$std..env..JoinPathsError$u20$as$u20$std..error..Error$GT$11description17hcc21b32c07754497E" @ 1816
;   <std::ffi::c_str::CStr as core::cmp::PartialEq>::eq
    "_ZN62_$LT$std..ffi..c_str..CStr$u20$as$u20$core..cmp..PartialEq$GT$2eq17h1069abf2efc6a05cE" @ 1817
;   <std::ffi::c_str::NulError as core::fmt::Debug>::fmt
    "_ZN62_$LT$std..ffi..c_str..NulError$u20$as$u20$core..fmt..Debug$GT$3fmt17ha08132d0f57ebc0aE" @ 1818
;   <std::io::error::ErrorKind as core::fmt::Debug>::fmt
    "_ZN62_$LT$std..io..error..ErrorKind$u20$as$u20$core..fmt..Debug$GT$3fmt17hca17f67433524e1bE" @ 1819
;   <std::process::ChildStderr as core::fmt::Debug>::fmt
    "_ZN62_$LT$std..process..ChildStderr$u20$as$u20$core..fmt..Debug$GT$3fmt17h7b0a93b5397299f5E" @ 1820
;   <std::process::ChildStdout as core::fmt::Debug>::fmt
    "_ZN62_$LT$std..process..ChildStdout$u20$as$u20$core..fmt..Debug$GT$3fmt17h46cfed86702edfb1E" @ 1821
;   <std::sys::imp::net::Socket as core::ops::Drop>::drop
    "_ZN62_$LT$std..sys..imp..net..Socket$u20$as$u20$core..ops..Drop$GT$4drop17hd26335e812be4032E" @ 1822
;   <std::sys::imp::rand::OsRng as core::ops::Drop>::drop
    "_ZN62_$LT$std..sys..imp..rand..OsRng$u20$as$u20$core..ops..Drop$GT$4drop17h72f93918bff3e68eE" @ 1823
;   <u8 as rand::distributions::range::SampleRange>::construct_range
    "_ZN62_$LT$u8$u20$as$u20$rand..distributions..range..SampleRange$GT$15construct_range17h47d36bcff1370797E" @ 1824
;   <&'a std::fs::File as std::io::Write>::flush
    "_ZN63_$LT$$RF$$u27$a$u20$std..fs..File$u20$as$u20$std..io..Write$GT$5flush17haa93e74df12230f2E" @ 1825
;   <&'a std::fs::File as std::io::Write>::write
    "_ZN63_$LT$$RF$$u27$a$u20$std..fs..File$u20$as$u20$std..io..Write$GT$5write17h11b6dee31040529fE" @ 1826
;   <core::cell::BorrowMutError as core::fmt::Debug>::fmt
    "_ZN63_$LT$core..cell..BorrowMutError$u20$as$u20$core..fmt..Debug$GT$3fmt17h2136364c574d6fbcE" @ 1827
;   <core::hash::sip::SipHasher as core::fmt::Debug>::fmt
    "_ZN63_$LT$core..hash..sip..SipHasher$u20$as$u20$core..fmt..Debug$GT$3fmt17hb0ae79bac617f3c4E" @ 1828
;   <core::num::ParseIntError as core::fmt::Display>::fmt
    "_ZN63_$LT$core..num..ParseIntError$u20$as$u20$core..fmt..Display$GT$3fmt17h038387cb614e1bf0E" @ 1829
;   <core::num::TryFromIntError as core::fmt::Debug>::fmt
    "_ZN63_$LT$core..num..TryFromIntError$u20$as$u20$core..fmt..Debug$GT$3fmt17h05f43fb66f058218E" @ 1830
;   <core::str::ParseBoolError as std::error::Error>::description
    "_ZN63_$LT$core..str..ParseBoolError$u20$as$u20$std..error..Error$GT$11description17h93d2d04cd0a8b2b4E" @ 1831
;   <f32 as rand::distributions::range::SampleRange>::construct_range
    "_ZN63_$LT$f32$u20$as$u20$rand..distributions..range..SampleRange$GT$15construct_range17h91baab75eaab3e6aE" @ 1832
;   <f64 as rand::distributions::range::SampleRange>::construct_range
    "_ZN63_$LT$f64$u20$as$u20$rand..distributions..range..SampleRange$GT$15construct_range17h7348abfa9d8b523bE" @ 1833
;   <i16 as rand::distributions::range::SampleRange>::construct_range
    "_ZN63_$LT$i16$u20$as$u20$rand..distributions..range..SampleRange$GT$15construct_range17h72126057023d2d31E" @ 1834
;   <i32 as rand::distributions::range::SampleRange>::construct_range
    "_ZN63_$LT$i32$u20$as$u20$rand..distributions..range..SampleRange$GT$15construct_range17h1d67e8fa5225ab85E" @ 1835
;   <i64 as rand::distributions::range::SampleRange>::construct_range
    "_ZN63_$LT$i64$u20$as$u20$rand..distributions..range..SampleRange$GT$15construct_range17ha4d8cdf8c9841180E" @ 1836
;   <std::env::JoinPathsError as core::fmt::Display>::fmt
    "_ZN63_$LT$std..env..JoinPathsError$u20$as$u20$core..fmt..Display$GT$3fmt17h4a958ed2dca897a2E" @ 1837
;   <std::ffi::c_str::CStr as core::cmp::PartialOrd>::partial_cmp
    "_ZN63_$LT$std..ffi..c_str..CStr$u20$as$u20$core..cmp..PartialOrd$GT$11partial_cmp17h0998566a05784c12E" @ 1838
;   <std::ffi::c_str::NulError as std::error::Error>::description
    "_ZN63_$LT$std..ffi..c_str..NulError$u20$as$u20$std..error..Error$GT$11description17h9634da7fe29235b2E" @ 1839
;   <std::ffi::os_str::OsString as core::fmt::Debug>::fmt
    "_ZN63_$LT$std..ffi..os_str..OsString$u20$as$u20$core..fmt..Debug$GT$3fmt17h8fc7d140a33298b0E" @ 1840
;   <std::net::addr::SocketAddr as core::fmt::Debug>::fmt
    "_ZN63_$LT$std..net..addr..SocketAddr$u20$as$u20$core..fmt..Debug$GT$3fmt17hc34b9de6dc2ebdb6E" @ 1841
;   <std::net::ip::Ipv4Addr as core::cmp::PartialEq>::eq
    "_ZN63_$LT$std..net..ip..Ipv4Addr$u20$as$u20$core..cmp..PartialEq$GT$2eq17h4aa6f97ec603708eE" @ 1842
;   <std::net::ip::Ipv6Addr as core::cmp::PartialEq>::eq
    "_ZN63_$LT$std..net..ip..Ipv6Addr$u20$as$u20$core..cmp..PartialEq$GT$2eq17h909bf570abaa5862E" @ 1843
;   <std::net::tcp::TcpListener as core::fmt::Debug>::fmt
    "_ZN63_$LT$std..net..tcp..TcpListener$u20$as$u20$core..fmt..Debug$GT$3fmt17h0583484154b7d954E" @ 1844
;   <std::process::ExitStatus as core::fmt::Display>::fmt
    "_ZN63_$LT$std..process..ExitStatus$u20$as$u20$core..fmt..Display$GT$3fmt17hd89f9cab48309b1cE" @ 1845
;   <std::sync::condvar::Condvar as core::ops::Drop>::drop
    "_ZN63_$LT$std..sync..condvar..Condvar$u20$as$u20$core..ops..Drop$GT$4drop17hafc1342ad61b1167E" @ 1846
;   <std::sync::mpsc::RecvError as core::fmt::Debug>::fmt
    "_ZN63_$LT$std..sync..mpsc..RecvError$u20$as$u20$core..fmt..Debug$GT$3fmt17h5b7d2f5aed5290a9E" @ 1847
;   <std::sync::once::OnceState as core::fmt::Debug>::fmt
    "_ZN63_$LT$std..sync..once..OnceState$u20$as$u20$core..fmt..Debug$GT$3fmt17h44265c21a12d8872E" @ 1848
;   <std::sys::imp::fs::ReadDir as core::fmt::Debug>::fmt
    "_ZN63_$LT$std..sys..imp..fs..ReadDir$u20$as$u20$core..fmt..Debug$GT$3fmt17hfddda73540838dfeE" @ 1849
;   <std::sys::imp::os_str::Buf as core::fmt::Debug>::fmt
    "_ZN63_$LT$std..sys..imp..os_str..Buf$u20$as$u20$core..fmt..Debug$GT$3fmt17h2cf15b7bcce52076E" @ 1850
;   <std::sys::imp::pipe::State as core::fmt::Debug>::fmt
    "_ZN63_$LT$std..sys..imp..pipe..State$u20$as$u20$core..fmt..Debug$GT$3fmt17h7208e47e449174cfE" @ 1851
;   <std::sys::imp::stdio::Stderr as std::io::Write>::flush
    "_ZN63_$LT$std..sys..imp..stdio..Stderr$u20$as$u20$std..io..Write$GT$5flush17hd114e6a5ffeecee1E" @ 1852
;   <std::sys::imp::stdio::Stderr as std::io::Write>::write
    "_ZN63_$LT$std..sys..imp..stdio..Stderr$u20$as$u20$std..io..Write$GT$5write17h59354c91a42b2b01E" @ 1853
;   <std::time::SystemTimeError as core::fmt::Debug>::fmt
    "_ZN63_$LT$std..time..SystemTimeError$u20$as$u20$core..fmt..Debug$GT$3fmt17h60b0d1b6f638b297E" @ 1854
;   <u16 as rand::distributions::range::SampleRange>::construct_range
    "_ZN63_$LT$u16$u20$as$u20$rand..distributions..range..SampleRange$GT$15construct_range17h76c15d3375b7bf02E" @ 1855
;   <u32 as rand::distributions::range::SampleRange>::construct_range
    "_ZN63_$LT$u32$u20$as$u20$rand..distributions..range..SampleRange$GT$15construct_range17h2f0f1b633fb489daE" @ 1856
;   <u64 as rand::distributions::range::SampleRange>::construct_range
    "_ZN63_$LT$u64$u20$as$u20$rand..distributions..range..SampleRange$GT$15construct_range17h21a1157378d44926E" @ 1857
;   <core::cell::BorrowMutError as std::error::Error>::description
    "_ZN64_$LT$core..cell..BorrowMutError$u20$as$u20$std..error..Error$GT$11description17h8bd48e30a194345cE" @ 1858
;   <core::char::EscapeDefault as core::fmt::Display>::fmt
    "_ZN64_$LT$core..char..EscapeDefault$u20$as$u20$core..fmt..Display$GT$3fmt17h7e44650b9694179dE" @ 1859
;   <core::char::EscapeUnicode as core::fmt::Display>::fmt
    "_ZN64_$LT$core..char..EscapeUnicode$u20$as$u20$core..fmt..Display$GT$3fmt17ha06dfff46eed8689E" @ 1860
;   <core::char::InvalidSequence as core::fmt::Debug>::fmt
    "_ZN64_$LT$core..char..InvalidSequence$u20$as$u20$core..fmt..Debug$GT$3fmt17hd23e1f9cd32e8635E" @ 1861
;   <core::num::TryFromIntError as std::error::Error>::description
    "_ZN64_$LT$core..num..TryFromIntError$u20$as$u20$std..error..Error$GT$11description17h2c38c7f06a0512f9E" @ 1862
;   <core::num::bignum::Big32x40 as core::fmt::Debug>::fmt
    "_ZN64_$LT$core..num..bignum..Big32x40$u20$as$u20$core..fmt..Debug$GT$3fmt17h67043cba1e0756d1E" @ 1863
;   <core::ops::Range<Idx> as core::fmt::Debug>::fmt::__STATIC_FMTSTR
    "_ZN64_$LT$core..ops..Range$LT$Idx$GT$$u20$as$u20$core..fmt..Debug$GT$3fmt15__STATIC_FMTSTR17hceab51ceb69b1acaE" @ 1864 DATA
;   <core::str::ParseBoolError as core::fmt::Display>::fmt
    "_ZN64_$LT$core..str..ParseBoolError$u20$as$u20$core..fmt..Display$GT$3fmt17h25a7d663a5717714E" @ 1865
;   <std::ffi::c_str::NulError as core::fmt::Display>::fmt
    "_ZN64_$LT$std..ffi..c_str..NulError$u20$as$u20$core..fmt..Display$GT$3fmt17hf6ee82b005d3018eE" @ 1866
;   <std::ffi::os_str::OsStr as core::cmp::PartialEq>::eq
    "_ZN64_$LT$std..ffi..os_str..OsStr$u20$as$u20$core..cmp..PartialEq$GT$2eq17h90db5ece696e61eeE" @ 1867
;   <std::net::ip::Ipv4Addr as core::cmp::PartialOrd>::partial_cmp
    "_ZN64_$LT$std..net..ip..Ipv4Addr$u20$as$u20$core..cmp..PartialOrd$GT$11partial_cmp17h87df2a5907fa7a36E" @ 1868
;   <std::net::ip::Ipv6Addr as core::cmp::PartialOrd>::partial_cmp
    "_ZN64_$LT$std..net..ip..Ipv6Addr$u20$as$u20$core..cmp..PartialOrd$GT$11partial_cmp17h77195ea1a74d8a5dE" @ 1869
;   <std::path::Path as collections::borrow::ToOwned>::clone_into
    "_ZN64_$LT$std..path..Path$u20$as$u20$collections..borrow..ToOwned$GT$10clone_into17hb6b55d81188648d1E" @ 1870
;   <std::path::Path as collections::borrow::ToOwned>::to_owned
    "_ZN64_$LT$std..path..Path$u20$as$u20$collections..borrow..ToOwned$GT$8to_owned17h255f1ecf068d14aaE" @ 1871
;   <std::path::StripPrefixError as core::fmt::Debug>::fmt
    "_ZN64_$LT$std..path..StripPrefixError$u20$as$u20$core..fmt..Debug$GT$3fmt17h6360deb1bf7a11f0E" @ 1872
;   <std::sync::barrier::Barrier as core::fmt::Debug>::fmt
    "_ZN64_$LT$std..sync..barrier..Barrier$u20$as$u20$core..fmt..Debug$GT$3fmt17hb29108ed90823f2cE" @ 1873
;   <std::sync::condvar::Condvar as core::fmt::Debug>::fmt
    "_ZN64_$LT$std..sync..condvar..Condvar$u20$as$u20$core..fmt..Debug$GT$3fmt17h1ff825992d3d0db7E" @ 1874
;   <std::sync::mpsc::RecvError as std::error::Error>::description
    "_ZN64_$LT$std..sync..mpsc..RecvError$u20$as$u20$std..error..Error$GT$11description17he372abba1e815d64E" @ 1875
;   <std::sync::mpsc::RecvError as std::error::Error>::cause
    "_ZN64_$LT$std..sync..mpsc..RecvError$u20$as$u20$std..error..Error$GT$5cause17h8e4508c5d9c77bf0E" @ 1876
;   <std::sync::mpsc::select::Handle<'rx, T>>::add::_FILE_LINE
    "_ZN64_$LT$std..sync..mpsc..select..Handle$LT$$u27$rx$C$$u20$T$GT$$GT$3add10_FILE_LINE17h240e5dc74b1564a0E" @ 1877 DATA
;   <std::sync::mpsc::select::Handle<'rx, T>>::remove::_FILE_LINE
    "_ZN64_$LT$std..sync..mpsc..select..Handle$LT$$u27$rx$C$$u20$T$GT$$GT$6remove10_FILE_LINE17hbca44455f0c52117E" @ 1878 DATA
;   <std::sync::mpsc::select::Handle<'rx, T>>::remove::_FILE_LINE
    "_ZN64_$LT$std..sync..mpsc..select..Handle$LT$$u27$rx$C$$u20$T$GT$$GT$6remove10_FILE_LINE17hd354cf40728ac411E" @ 1879 DATA
;   <std::sync::mpsc::select::Handle<'rx, T>>::remove::__STATIC_FMTSTR
    "_ZN64_$LT$std..sync..mpsc..select..Handle$LT$$u27$rx$C$$u20$T$GT$$GT$6remove15__STATIC_FMTSTR17he63c9ae347551327E" @ 1880 DATA
;   <std::sync::mpsc::select::Handle<'rx, T>>::remove::__STATIC_FMTSTR
    "_ZN64_$LT$std..sync..mpsc..select..Handle$LT$$u27$rx$C$$u20$T$GT$$GT$6remove15__STATIC_FMTSTR17hf53d3de707cb077aE" @ 1881 DATA
;   <std::sys::imp::fs::FileType as core::fmt::Debug>::fmt
    "_ZN64_$LT$std..sys..imp..fs..FileType$u20$as$u20$core..fmt..Debug$GT$3fmt17hd998705b549c4c61E" @ 1882
;   <std::sys_common::wtf8::Wtf8 as core::fmt::Debug>::fmt
    "_ZN64_$LT$std..sys_common..wtf8..Wtf8$u20$as$u20$core..fmt..Debug$GT$3fmt17hbb9dfca4418caa20E" @ 1883
;   <std::time::SystemTimeError as std::error::Error>::description
    "_ZN64_$LT$std..time..SystemTimeError$u20$as$u20$std..error..Error$GT$11description17h8d7f50fb7e35ef0eE" @ 1884
;   <std::time::duration::Duration as core::ops::Add>::add
    "_ZN64_$LT$std..time..duration..Duration$u20$as$u20$core..ops..Add$GT$3add17h1fa23145d200aaf8E" @ 1885
;   <std::time::duration::Duration as core::ops::Sub>::sub
    "_ZN64_$LT$std..time..duration..Duration$u20$as$u20$core..ops..Sub$GT$3sub17h58ef6ddc8eef00ccE" @ 1886
;   <core::cell::BorrowMutError as core::fmt::Display>::fmt
    "_ZN65_$LT$core..cell..BorrowMutError$u20$as$u20$core..fmt..Display$GT$3fmt17hd9363b30dc7d4e65E" @ 1887
;   <core::char::CharTryFromError as core::fmt::Debug>::fmt
    "_ZN65_$LT$core..char..CharTryFromError$u20$as$u20$core..fmt..Debug$GT$3fmt17h08eb75b3927b5cb6E" @ 1888
;   <core::hash::sip::Sip13Rounds as core::fmt::Debug>::fmt
    "_ZN65_$LT$core..hash..sip..Sip13Rounds$u20$as$u20$core..fmt..Debug$GT$3fmt17he46f4d40d69c1f21E" @ 1889
;   <core::hash::sip::Sip24Rounds as core::fmt::Debug>::fmt
    "_ZN65_$LT$core..hash..sip..Sip24Rounds$u20$as$u20$core..fmt..Debug$GT$3fmt17h213838ac7b958bd6E" @ 1890
;   <core::hash::sip::SipHasher13 as core::fmt::Debug>::fmt
    "_ZN65_$LT$core..hash..sip..SipHasher13$u20$as$u20$core..fmt..Debug$GT$3fmt17h4776b5051caefc36E" @ 1891
;   <core::hash::sip::SipHasher24 as core::fmt::Debug>::fmt
    "_ZN65_$LT$core..hash..sip..SipHasher24$u20$as$u20$core..fmt..Debug$GT$3fmt17h0a8dd5da7a121b93E" @ 1892
;   <core::num::TryFromIntError as core::fmt::Display>::fmt
    "_ZN65_$LT$core..num..TryFromIntError$u20$as$u20$core..fmt..Display$GT$3fmt17haabc96e6870c28e3E" @ 1893
;   <core::ops::_DummyErrorType as core::ops::Carrier>::from_error
    "_ZN65_$LT$core..ops.._DummyErrorType$u20$as$u20$core..ops..Carrier$GT$10from_error17h7baf8d039625bacbE" @ 1894
;   <core::ops::_DummyErrorType as core::ops::Carrier>::from_success
    "_ZN65_$LT$core..ops.._DummyErrorType$u20$as$u20$core..ops..Carrier$GT$12from_success17hbac19ecb17be1b36E" @ 1895
;   <core::sync::atomic::AtomicI8 as core::fmt::Debug>::fmt
    "_ZN65_$LT$core..sync..atomic..AtomicI8$u20$as$u20$core..fmt..Debug$GT$3fmt17hcd01707027983c5fE" @ 1896
;   <core::sync::atomic::AtomicU8 as core::fmt::Debug>::fmt
    "_ZN65_$LT$core..sync..atomic..AtomicU8$u20$as$u20$core..fmt..Debug$GT$3fmt17hf9c98e5417e5e7b9E" @ 1897
;   <core::sync::atomic::Ordering as core::fmt::Debug>::fmt
    "_ZN65_$LT$core..sync..atomic..Ordering$u20$as$u20$core..fmt..Debug$GT$3fmt17h671647ea8bf79734E" @ 1898
;   <isize as rand::distributions::range::SampleRange>::construct_range
    "_ZN65_$LT$isize$u20$as$u20$rand..distributions..range..SampleRange$GT$15construct_range17h926979209413b554E" @ 1899
;   <std::env::Args as core::iter::iterator::Iterator>::next
    "_ZN65_$LT$std..env..Args$u20$as$u20$core..iter..iterator..Iterator$GT$4next17h31d3197fbf3fc2c1E" @ 1900
;   <std::env::Args as core::iter::iterator::Iterator>::size_hint
    "_ZN65_$LT$std..env..Args$u20$as$u20$core..iter..iterator..Iterator$GT$9size_hint17h361791066859ab06E" @ 1901
;   <std::env::Vars as core::iter::iterator::Iterator>::next
    "_ZN65_$LT$std..env..Vars$u20$as$u20$core..iter..iterator..Iterator$GT$4next17hce56056450f552acE" @ 1902
;   <std::env::Vars as core::iter::iterator::Iterator>::size_hint
    "_ZN65_$LT$std..env..Vars$u20$as$u20$core..iter..iterator..Iterator$GT$9size_hint17h7c7735f937e04a72E" @ 1903
;   <std::fs::File as std::sys::imp::ext::fs::FileExt>::seek_write
    "_ZN65_$LT$std..fs..File$u20$as$u20$std..sys..imp..ext..fs..FileExt$GT$10seek_write17h640a03f74bda6a70E" @ 1904
;   <std::fs::File as std::sys::imp::ext::fs::FileExt>::seek_read
    "_ZN65_$LT$std..fs..File$u20$as$u20$std..sys..imp..ext..fs..FileExt$GT$9seek_read17he0b17fc74fc38120E" @ 1905
;   <std::net::addr::SocketAddr as core::fmt::Display>::fmt
    "_ZN65_$LT$std..net..addr..SocketAddr$u20$as$u20$core..fmt..Display$GT$3fmt17hce79082c13196ae7E" @ 1906
;   <std::net::addr::SocketAddrV4 as core::fmt::Debug>::fmt
    "_ZN65_$LT$std..net..addr..SocketAddrV4$u20$as$u20$core..fmt..Debug$GT$3fmt17h77bffdae385238c1E" @ 1907
;   <std::net::addr::SocketAddrV6 as core::fmt::Debug>::fmt
    "_ZN65_$LT$std..net..addr..SocketAddrV6$u20$as$u20$core..fmt..Debug$GT$3fmt17h3b741abd31ddf200E" @ 1908
;   <std::path::StripPrefixError as std::error::Error>::description
    "_ZN65_$LT$std..path..StripPrefixError$u20$as$u20$std..error..Error$GT$11description17hb263c9fb6cc0300eE" @ 1909
;   <std::sync::mpsc::RecvError as core::fmt::Display>::fmt
    "_ZN65_$LT$std..sync..mpsc..RecvError$u20$as$u20$core..fmt..Display$GT$3fmt17h835729fc86b1754fE" @ 1910
;   <std::sys::imp::handle::Handle as core::ops::Drop>::drop
    "_ZN65_$LT$std..sys..imp..handle..Handle$u20$as$u20$core..ops..Drop$GT$4drop17h8f5cd309d911b045E" @ 1911
;   <std::sys::imp::os_str::Slice as core::fmt::Debug>::fmt
    "_ZN65_$LT$std..sys..imp..os_str..Slice$u20$as$u20$core..fmt..Debug$GT$3fmt17h63ad45ecef122f11E" @ 1912
;   <std::sys::imp::time::Instant as core::fmt::Debug>::fmt
    "_ZN65_$LT$std..sys..imp..time..Instant$u20$as$u20$core..fmt..Debug$GT$3fmt17h7feffe83cb3f5b29E" @ 1913
;   <std::time::SystemTimeError as core::fmt::Display>::fmt
    "_ZN65_$LT$std..time..SystemTimeError$u20$as$u20$core..fmt..Display$GT$3fmt17h08d889ae662874d2E" @ 1914
;   <usize as rand::distributions::range::SampleRange>::construct_range
    "_ZN65_$LT$usize$u20$as$u20$rand..distributions..range..SampleRange$GT$15construct_range17he1b4a2634e356bd0E" @ 1915
;   <collections::string::String as core::clone::Clone>::clone_from
    "_ZN66_$LT$collections..string..String$u20$as$u20$core..clone..Clone$GT$10clone_from17h8cd59b106f761779E" @ 1916
;   <collections::string::String as core::clone::Clone>::clone
    "_ZN66_$LT$collections..string..String$u20$as$u20$core..clone..Clone$GT$5clone17h17b922dd095b4ffeE" @ 1917
;   <core::char::CharTryFromError as std::error::Error>::description
    "_ZN66_$LT$core..char..CharTryFromError$u20$as$u20$std..error..Error$GT$11description17hfd768d1935ba0298E" @ 1918
;   <core::num::bignum::Big32x40 as core::clone::Clone>::clone
    "_ZN66_$LT$core..num..bignum..Big32x40$u20$as$u20$core..clone..Clone$GT$5clone17h980333b70ef01162E" @ 1919
;   <core::ops::RangeTo<Idx> as core::fmt::Debug>::fmt::__STATIC_FMTSTR
    "_ZN66_$LT$core..ops..RangeTo$LT$Idx$GT$$u20$as$u20$core..fmt..Debug$GT$3fmt15__STATIC_FMTSTR17h254c112b8b7e25fdE" @ 1920 DATA
;   <core::sync::atomic::AtomicI16 as core::fmt::Debug>::fmt
    "_ZN66_$LT$core..sync..atomic..AtomicI16$u20$as$u20$core..fmt..Debug$GT$3fmt17h13314d8b95b8f8d6E" @ 1921
;   <core::sync::atomic::AtomicI32 as core::fmt::Debug>::fmt
    "_ZN66_$LT$core..sync..atomic..AtomicI32$u20$as$u20$core..fmt..Debug$GT$3fmt17hf7326954426e5f5bE" @ 1922
;   <core::sync::atomic::AtomicI64 as core::fmt::Debug>::fmt
    "_ZN66_$LT$core..sync..atomic..AtomicI64$u20$as$u20$core..fmt..Debug$GT$3fmt17h61b0e6e9a4961dd8E" @ 1923
;   <core::sync::atomic::AtomicU16 as core::fmt::Debug>::fmt
    "_ZN66_$LT$core..sync..atomic..AtomicU16$u20$as$u20$core..fmt..Debug$GT$3fmt17h45268e7f0dd5da15E" @ 1924
;   <core::sync::atomic::AtomicU32 as core::fmt::Debug>::fmt
    "_ZN66_$LT$core..sync..atomic..AtomicU32$u20$as$u20$core..fmt..Debug$GT$3fmt17h4d2f3dbd4f79ac5fE" @ 1925
;   <core::sync::atomic::AtomicU64 as core::fmt::Debug>::fmt
    "_ZN66_$LT$core..sync..atomic..AtomicU64$u20$as$u20$core..fmt..Debug$GT$3fmt17h0e5364be683c4be6E" @ 1926
;   <std::collections::hash::table::RawTable<K, V>>::raw_bucket_at::_FILE_LINE
    "_ZN66_$LT$std..collections..hash..table..RawTable$LT$K$C$$u20$V$GT$$GT$13raw_bucket_at10_FILE_LINE17hf42ad09e66e2f0d4E" @ 1927 DATA
;   <std::collections::hash::table::RawTable<K, V>>::new_uninitialized::_FILE_LINE
    "_ZN66_$LT$std..collections..hash..table..RawTable$LT$K$C$$u20$V$GT$$GT$17new_uninitialized10_FILE_LINE17h9c3c89fdeb805ffdE" @ 1928 DATA
;   <std::collections::hash::table::RawTable<K, V>>::new_uninitialized::_FILE_LINE
    "_ZN66_$LT$std..collections..hash..table..RawTable$LT$K$C$$u20$V$GT$$GT$17new_uninitialized10_FILE_LINE17hb834cab5f4cef02fE" @ 1929 DATA
;   <std::path::Iter<'a> as core::fmt::Debug>::fmt
    "_ZN66_$LT$std..path..Iter$LT$$u27$a$GT$$u20$as$u20$core..fmt..Debug$GT$3fmt17h523b916e2bbfda1eE" @ 1930
;   <std::path::StripPrefixError as core::fmt::Display>::fmt
    "_ZN66_$LT$std..path..StripPrefixError$u20$as$u20$core..fmt..Display$GT$3fmt17hc893cdfc3c75eb55E" @ 1931
;   <std::sync::mpsc::TryRecvError as core::fmt::Debug>::fmt
    "_ZN66_$LT$std..sync..mpsc..TryRecvError$u20$as$u20$core..fmt..Debug$GT$3fmt17h977a4617f7674202E" @ 1932
;   <std::sys::imp::fs::DirBuilder as core::fmt::Debug>::fmt
    "_ZN66_$LT$std..sys..imp..fs..DirBuilder$u20$as$u20$core..fmt..Debug$GT$3fmt17hcb501bf37e1035f0E" @ 1933
;   <std::sys::imp::handle::Handle as core::ops::Deref>::deref
    "_ZN66_$LT$std..sys..imp..handle..Handle$u20$as$u20$core..ops..Deref$GT$5deref17h8c40d6d0aca6e5b3E" @ 1934
;   <std::sys::imp::time::SystemTime as core::cmp::Ord>::cmp
    "_ZN66_$LT$std..sys..imp..time..SystemTime$u20$as$u20$core..cmp..Ord$GT$3cmp17h9a101a76ebe344d7E" @ 1935
;   <std::time::duration::Duration as core::fmt::Debug>::fmt
    "_ZN66_$LT$std..time..duration..Duration$u20$as$u20$core..fmt..Debug$GT$3fmt17h27aa1c2417a74f09E" @ 1936
;   <alloc::boxed::Box<str> as core::clone::Clone>::clone
    "_ZN67_$LT$alloc..boxed..Box$LT$str$GT$$u20$as$u20$core..clone..Clone$GT$5clone17hb49f146eda927461E" @ 1937
;   <core::char::CharTryFromError as core::fmt::Display>::fmt
    "_ZN67_$LT$core..char..CharTryFromError$u20$as$u20$core..fmt..Display$GT$3fmt17h0c9920e078e0aff2E" @ 1938
;   <core::char::EscapeDefaultState as core::fmt::Debug>::fmt
    "_ZN67_$LT$core..char..EscapeDefaultState$u20$as$u20$core..fmt..Debug$GT$3fmt17hbe44e68b7e082705E" @ 1939
;   <core::char::EscapeUnicodeState as core::fmt::Debug>::fmt
    "_ZN67_$LT$core..char..EscapeUnicodeState$u20$as$u20$core..fmt..Debug$GT$3fmt17heafd287ba056b40dE" @ 1940
;   <core::num::bignum::tests::Big8x3 as core::cmp::Ord>::cmp
    "_ZN67_$LT$core..num..bignum..tests..Big8x3$u20$as$u20$core..cmp..Ord$GT$3cmp17h615358f4b110330eE" @ 1941
;   <core::str::Bytes<'a> as core::fmt::Debug>::fmt
    "_ZN67_$LT$core..str..Bytes$LT$$u27$a$GT$$u20$as$u20$core..fmt..Debug$GT$3fmt17h8854a6c75a5b38b2E" @ 1942
;   <core::str::Chars<'a> as core::fmt::Debug>::fmt
    "_ZN67_$LT$core..str..Chars$LT$$u27$a$GT$$u20$as$u20$core..fmt..Debug$GT$3fmt17h9ffdaf843c566289E" @ 1943
;   <core::str::Lines<'a> as core::fmt::Debug>::fmt
    "_ZN67_$LT$core..str..Lines$LT$$u27$a$GT$$u20$as$u20$core..fmt..Debug$GT$3fmt17h3e214874ccc471baE" @ 1944
;   <core::str::pattern::SearchStep as core::fmt::Debug>::fmt
    "_ZN67_$LT$core..str..pattern..SearchStep$u20$as$u20$core..fmt..Debug$GT$3fmt17h6c9821635c9a394cE" @ 1945
;   <core::sync::atomic::AtomicBool as core::fmt::Debug>::fmt
    "_ZN67_$LT$core..sync..atomic..AtomicBool$u20$as$u20$core..fmt..Debug$GT$3fmt17h03bc5dbc679b2341E" @ 1946
;   <f32 as core::num::flt2dec::decoder::DecodableFloat>::min_pos_norm_value
    "_ZN67_$LT$f32$u20$as$u20$core..num..flt2dec..decoder..DecodableFloat$GT$18min_pos_norm_value17h64937b9c75d1cc74E" @ 1947
;   <f64 as core::num::flt2dec::decoder::DecodableFloat>::min_pos_norm_value
    "_ZN67_$LT$f64$u20$as$u20$core..num..flt2dec..decoder..DecodableFloat$GT$18min_pos_norm_value17h02bebacdfb87afbaE" @ 1948
;   <rand::distributions::WeightedChoice<'a, T>>::new::_MSG_FILE_LINE
    "_ZN67_$LT$rand..distributions..WeightedChoice$LT$$u27$a$C$$u20$T$GT$$GT$3new14_MSG_FILE_LINE17h32f7551115111d25E" @ 1949 DATA
;   <rand::distributions::WeightedChoice<'a, T>>::new::_MSG_FILE_LINE
    "_ZN67_$LT$rand..distributions..WeightedChoice$LT$$u27$a$C$$u20$T$GT$$GT$3new14_MSG_FILE_LINE17h71c25a44d795b35eE" @ 1950 DATA
;   <rand::distributions::WeightedChoice<'a, T>>::new::_MSG_FILE_LINE
    "_ZN67_$LT$rand..distributions..WeightedChoice$LT$$u27$a$C$$u20$T$GT$$GT$3new14_MSG_FILE_LINE17hf43c3064731c2bf9E" @ 1951 DATA
;   <std::env::ArgsOs as core::iter::iterator::Iterator>::next
    "_ZN67_$LT$std..env..ArgsOs$u20$as$u20$core..iter..iterator..Iterator$GT$4next17h1daef78700c85b52E" @ 1952
;   <std::env::ArgsOs as core::iter::iterator::Iterator>::size_hint
    "_ZN67_$LT$std..env..ArgsOs$u20$as$u20$core..iter..iterator..Iterator$GT$9size_hint17hf8bcf98ca45a6053E" @ 1953
;   <std::env::VarsOs as core::iter::iterator::Iterator>::next
    "_ZN67_$LT$std..env..VarsOs$u20$as$u20$core..iter..iterator..Iterator$GT$4next17h31721ccdccaf8f31E" @ 1954
;   <std::env::VarsOs as core::iter::iterator::Iterator>::size_hint
    "_ZN67_$LT$std..env..VarsOs$u20$as$u20$core..iter..iterator..Iterator$GT$9size_hint17hdeb5f65a39f504f4E" @ 1955
;   <std::ffi::c_str::CString as core::default::Default>::default
    "_ZN67_$LT$std..ffi..c_str..CString$u20$as$u20$core..default..Default$GT$7default17h6253c7587d3f598fE" @ 1956
;   <std::ffi::os_str::OsString as core::cmp::PartialEq>::eq
    "_ZN67_$LT$std..ffi..os_str..OsString$u20$as$u20$core..cmp..PartialEq$GT$2eq17hc7a8adcaba1553b0E" @ 1957
;   <std::fs::ReadDir as core::iter::iterator::Iterator>::next
    "_ZN67_$LT$std..fs..ReadDir$u20$as$u20$core..iter..iterator..Iterator$GT$4next17hf798c0b72113d07dE" @ 1958
;   <std::net::addr::SocketAddrV4 as core::clone::Clone>::clone
    "_ZN67_$LT$std..net..addr..SocketAddrV4$u20$as$u20$core..clone..Clone$GT$5clone17h86979b82de428b16E" @ 1959
;   <std::net::addr::SocketAddrV4 as core::fmt::Display>::fmt
    "_ZN67_$LT$std..net..addr..SocketAddrV4$u20$as$u20$core..fmt..Display$GT$3fmt17h637dc3fe82f96e33E" @ 1960
;   <std::net::addr::SocketAddrV6 as core::clone::Clone>::clone
    "_ZN67_$LT$std..net..addr..SocketAddrV6$u20$as$u20$core..clone..Clone$GT$5clone17hc8f84448241e6afaE" @ 1961
;   <std::net::addr::SocketAddrV6 as core::fmt::Display>::fmt
    "_ZN67_$LT$std..net..addr..SocketAddrV6$u20$as$u20$core..fmt..Display$GT$3fmt17hbc165702f22b0acfE" @ 1962
;   <std::rand::reader::ReaderRng<R> as rand::Rng>::fill_bytes::_FILE_LINE
    "_ZN67_$LT$std..rand..reader..ReaderRng$LT$R$GT$$u20$as$u20$rand..Rng$GT$10fill_bytes10_FILE_LINE17h2ff754852c092abaE" @ 1963 DATA
;   <std::rand::reader::ReaderRng<R> as rand::Rng>::fill_bytes::_FILE_LINE
    "_ZN67_$LT$std..rand..reader..ReaderRng$LT$R$GT$$u20$as$u20$rand..Rng$GT$10fill_bytes10_FILE_LINE17h67f56dddb7d4d9e9E" @ 1964 DATA
;   <std::rand::reader::ReaderRng<R> as rand::Rng>::fill_bytes::__STATIC_FMTSTR
    "_ZN67_$LT$std..rand..reader..ReaderRng$LT$R$GT$$u20$as$u20$rand..Rng$GT$10fill_bytes15__STATIC_FMTSTR17h0cfac485f9fa939cE" @ 1965 DATA
;   <std::sync::mpsc::TryRecvError as std::error::Error>::description
    "_ZN67_$LT$std..sync..mpsc..TryRecvError$u20$as$u20$std..error..Error$GT$11description17ha3e1a11af96ecf41E" @ 1966
;   <std::sync::mpsc::TryRecvError as std::error::Error>::cause
    "_ZN67_$LT$std..sync..mpsc..TryRecvError$u20$as$u20$std..error..Error$GT$5cause17hd5179b574dac36aeE" @ 1967
;   <std::sync::mpsc::select::Select as core::ops::Drop>::drop
    "_ZN67_$LT$std..sync..mpsc..select..Select$u20$as$u20$core..ops..Drop$GT$4drop17h764d0ee899692f8dE" @ 1968
;   <std::sync::mpsc::sync::Failure as core::fmt::Debug>::fmt
    "_ZN67_$LT$std..sync..mpsc..sync..Failure$u20$as$u20$core..fmt..Debug$GT$3fmt17hf1d96dbcf7d58fd2E" @ 1969
;   <std::sys::imp::fs::OpenOptions as core::fmt::Debug>::fmt
    "_ZN67_$LT$std..sys..imp..fs..OpenOptions$u20$as$u20$core..fmt..Debug$GT$3fmt17h6fe61f16ead64bbbE" @ 1970
;   <std::sys_common::wtf8::Wtf8Buf as core::ops::Deref>::deref
    "_ZN67_$LT$std..sys_common..wtf8..Wtf8Buf$u20$as$u20$core..ops..Deref$GT$5deref17h275dc72ba61905a8E" @ 1971
;   <collections::string::ParseError as core::fmt::Debug>::fmt
    "_ZN68_$LT$collections..string..ParseError$u20$as$u20$core..fmt..Debug$GT$3fmt17hb64bf12608fb3069E" @ 1972
;   <core::num::bignum::Big32x40 as core::cmp::PartialEq>::eq
    "_ZN68_$LT$core..num..bignum..Big32x40$u20$as$u20$core..cmp..PartialEq$GT$2eq17h71ab1aaafc311460E" @ 1973
;   <core::num::dec2flt::parse::Sign as core::fmt::Debug>::fmt
    "_ZN68_$LT$core..num..dec2flt..parse..Sign$u20$as$u20$core..fmt..Debug$GT$3fmt17h0b67ff70f42c7b6dE" @ 1974
;   <core::ops::RangeFrom<Idx> as core::fmt::Debug>::fmt::__STATIC_FMTSTR
    "_ZN68_$LT$core..ops..RangeFrom$LT$Idx$GT$$u20$as$u20$core..fmt..Debug$GT$3fmt15__STATIC_FMTSTR17hbde45b5b90a7b0eeE" @ 1975 DATA
;   <core::str::pattern::EmptyNeedle as core::fmt::Debug>::fmt
    "_ZN68_$LT$core..str..pattern..EmptyNeedle$u20$as$u20$core..fmt..Debug$GT$3fmt17hb7cc15c31fff8d2dE" @ 1976
;   <core::sync::atomic::AtomicIsize as core::fmt::Debug>::fmt
    "_ZN68_$LT$core..sync..atomic..AtomicIsize$u20$as$u20$core..fmt..Debug$GT$3fmt17h84e44fd9279ced39E" @ 1977
;   <core::sync::atomic::AtomicUsize as core::fmt::Debug>::fmt
    "_ZN68_$LT$core..sync..atomic..AtomicUsize$u20$as$u20$core..fmt..Debug$GT$3fmt17hc86db2b14cc7ac59E" @ 1978
;   <std::path::Prefix<'a> as core::fmt::Debug>::fmt
    "_ZN68_$LT$std..path..Prefix$LT$$u27$a$GT$$u20$as$u20$core..fmt..Debug$GT$3fmt17h20d919931afa0263E" @ 1979
;   <std::sync::mpsc::Sender<T> as core::ops::Drop>::drop::_FILE_LINE
    "_ZN68_$LT$std..sync..mpsc..Sender$LT$T$GT$$u20$as$u20$core..ops..Drop$GT$4drop10_FILE_LINE17h1d4452f62de6fb46E" @ 1980 DATA
;   <std::sync::mpsc::TryRecvError as core::fmt::Display>::fmt
    "_ZN68_$LT$std..sync..mpsc..TryRecvError$u20$as$u20$core..fmt..Display$GT$3fmt17h456eb90172c15714E" @ 1981
;   <std::sync::mpsc::select::Select as core::fmt::Debug>::fmt
    "_ZN68_$LT$std..sync..mpsc..select..Select$u20$as$u20$core..fmt..Debug$GT$3fmt17h1cfd26a3d5ebb471E" @ 1982
;   <std::sys::imp::process::Command as core::fmt::Debug>::fmt
    "_ZN68_$LT$std..sys..imp..process..Command$u20$as$u20$core..fmt..Debug$GT$3fmt17h60ed924f312a7b03E" @ 1983
;   <std::sys::imp::time::SystemTime as core::fmt::Debug>::fmt
    "_ZN68_$LT$std..sys..imp..time..SystemTime$u20$as$u20$core..fmt..Debug$GT$3fmt17h0c40f8933e6880deE" @ 1984
;   <std::sys_common::net::LookupHost as core::ops::Drop>::drop
    "_ZN68_$LT$std..sys_common..net..LookupHost$u20$as$u20$core..ops..Drop$GT$4drop17h3dd825d26e91c5f0E" @ 1985
;   <std::sys_common::net::TcpStream as core::fmt::Debug>::fmt
    "_ZN68_$LT$std..sys_common..net..TcpStream$u20$as$u20$core..fmt..Debug$GT$3fmt17h2aeb25ad475e9107E" @ 1986
;   <std::sys_common::net::UdpSocket as core::fmt::Debug>::fmt
    "_ZN68_$LT$std..sys_common..net..UdpSocket$u20$as$u20$core..fmt..Debug$GT$3fmt17he97698a2c0ef5f69E" @ 1987
;   <std::sys_common::wtf8::Wtf8 as std::ascii::AsciiExt>::to_ascii_lowercase
    "_ZN68_$LT$std..sys_common..wtf8..Wtf8$u20$as$u20$std..ascii..AsciiExt$GT$18to_ascii_lowercase17hc46dfd362bed5599E" @ 1988
;   <std::sys_common::wtf8::Wtf8 as std::ascii::AsciiExt>::to_ascii_uppercase
    "_ZN68_$LT$std..sys_common..wtf8..Wtf8$u20$as$u20$std..ascii..AsciiExt$GT$18to_ascii_uppercase17h4b79a8f5930dceb5E" @ 1989
;   <std::sys_common::wtf8::Wtf8 as std::ascii::AsciiExt>::eq_ignore_ascii_case
    "_ZN68_$LT$std..sys_common..wtf8..Wtf8$u20$as$u20$std..ascii..AsciiExt$GT$20eq_ignore_ascii_case17hf62bcbf05d4b282dE" @ 1990
;   <std::sys_common::wtf8::Wtf8 as std::ascii::AsciiExt>::make_ascii_lowercase
    "_ZN68_$LT$std..sys_common..wtf8..Wtf8$u20$as$u20$std..ascii..AsciiExt$GT$20make_ascii_lowercase17hda1672afe8ecf402E" @ 1991
;   <std::sys_common::wtf8::Wtf8 as std::ascii::AsciiExt>::make_ascii_uppercase
    "_ZN68_$LT$std..sys_common..wtf8..Wtf8$u20$as$u20$std..ascii..AsciiExt$GT$20make_ascii_uppercase17h371baac094c5ddefE" @ 1992
;   <std::sys_common::wtf8::Wtf8 as std::ascii::AsciiExt>::is_ascii
    "_ZN68_$LT$std..sys_common..wtf8..Wtf8$u20$as$u20$std..ascii..AsciiExt$GT$8is_ascii17h845d7b6245e6ca47E" @ 1993
;   <collections::string::ParseError as std::error::Error>::description
    "_ZN69_$LT$collections..string..ParseError$u20$as$u20$std..error..Error$GT$11description17h0483759bb00b8fd3E" @ 1994
;   <core::num::bignum::Big32x40 as core::cmp::PartialOrd>::partial_cmp
    "_ZN69_$LT$core..num..bignum..Big32x40$u20$as$u20$core..cmp..PartialOrd$GT$11partial_cmp17h66edbd0e1cb8f28cE" @ 1995
;   <core::num::bignum::tests::Big8x3 as core::fmt::Debug>::fmt
    "_ZN69_$LT$core..num..bignum..tests..Big8x3$u20$as$u20$core..fmt..Debug$GT$3fmt17hd735b2fce6fea556E" @ 1996
;   <std::ffi::c_str::IntoStringError as core::fmt::Debug>::fmt
    "_ZN69_$LT$std..ffi..c_str..IntoStringError$u20$as$u20$core..fmt..Debug$GT$3fmt17had40f2c4ee340667E" @ 1997
;   <std::fs::File as std::sys::imp::ext::io::AsRawHandle>::as_raw_handle
    "_ZN69_$LT$std..fs..File$u20$as$u20$std..sys..imp..ext..io..AsRawHandle$GT$13as_raw_handle17hcf41ec926aa30442E" @ 1998
;   <std::net::addr::SocketAddrV4 as core::cmp::PartialEq>::eq
    "_ZN69_$LT$std..net..addr..SocketAddrV4$u20$as$u20$core..cmp..PartialEq$GT$2eq17hd2a0b9799fa52904E" @ 1999
;   <std::net::addr::SocketAddrV6 as core::cmp::PartialEq>::eq
    "_ZN69_$LT$std..net..addr..SocketAddrV6$u20$as$u20$core..cmp..PartialEq$GT$2eq17h35fa58b03f68f703E" @ 2000
;   <std::net::ip::Ipv6MulticastScope as core::fmt::Debug>::fmt
    "_ZN69_$LT$std..net..ip..Ipv6MulticastScope$u20$as$u20$core..fmt..Debug$GT$3fmt17h3d51b7cf4b36bdadE" @ 2001
;   <std::net::parser::AddrParseError as core::fmt::Debug>::fmt
    "_ZN69_$LT$std..net..parser..AddrParseError$u20$as$u20$core..fmt..Debug$GT$3fmt17h210785bb0c246c8bE" @ 2002
;   <std::path::Display<'a> as core::fmt::Debug>::fmt
    "_ZN69_$LT$std..path..Display$LT$$u27$a$GT$$u20$as$u20$core..fmt..Debug$GT$3fmt17h90627e630f8d4874E" @ 2003
;   <std::sync::mpsc::Sender<T> as core::fmt::Debug>::fmt::__STATIC_FMTSTR
    "_ZN69_$LT$std..sync..mpsc..Sender$LT$T$GT$$u20$as$u20$core..fmt..Debug$GT$3fmt15__STATIC_FMTSTR17hf9dd681f732a18bfE" @ 2004 DATA
;   <std::sync::mutex::Mutex<T> as core::fmt::Debug>::fmt::__STATIC_FMTSTR
    "_ZN69_$LT$std..sync..mutex..Mutex$LT$T$GT$$u20$as$u20$core..fmt..Debug$GT$3fmt15__STATIC_FMTSTR17h4e1c37287b497ce8E" @ 2005 DATA
;   <std::sync::mutex::Mutex<T> as core::fmt::Debug>::fmt::__STATIC_FMTSTR
    "_ZN69_$LT$std..sync..mutex..Mutex$LT$T$GT$$u20$as$u20$core..fmt..Debug$GT$3fmt15__STATIC_FMTSTR17h719e75183f35954dE" @ 2006 DATA
;   <std::sync::mutex::Mutex<T> as core::fmt::Debug>::fmt::__STATIC_FMTSTR
    "_ZN69_$LT$std..sync..mutex..Mutex$LT$T$GT$$u20$as$u20$core..fmt..Debug$GT$3fmt15__STATIC_FMTSTR17h8456fc7c4e85dea4E" @ 2007 DATA
;   <std::sys_common::wtf8::CodePoint as core::fmt::Debug>::fmt::__STATIC_FMTSTR
    "_ZN69_$LT$std..sys_common..wtf8..CodePoint$u20$as$u20$core..fmt..Debug$GT$3fmt15__STATIC_FMTSTR17h2284b4df35db3d29E" @ 2008 DATA
;   <std::sys_common::wtf8::CodePoint as core::fmt::Debug>::fmt::__STATIC_FMTARGS
    "_ZN69_$LT$std..sys_common..wtf8..CodePoint$u20$as$u20$core..fmt..Debug$GT$3fmt16__STATIC_FMTARGS17h5ae0bfc14df7abeeE" @ 2009 DATA
;   <std_unicode::char::ToLowercase as core::fmt::Display>::fmt
    "_ZN69_$LT$std_unicode..char..ToLowercase$u20$as$u20$core..fmt..Display$GT$3fmt17hd31f3c9cfd0fb48dE" @ 2010
;   <std_unicode::char::ToUppercase as core::fmt::Display>::fmt
    "_ZN69_$LT$std_unicode..char..ToUppercase$u20$as$u20$core..fmt..Display$GT$3fmt17h5d3308c7dcc1cb66E" @ 2011
;   <collections::string::ParseError as core::clone::Clone>::clone
    "_ZN70_$LT$collections..string..ParseError$u20$as$u20$core..clone..Clone$GT$5clone17h0d6d3f8816f21108E" @ 2012
;   <collections::string::ParseError as core::fmt::Display>::fmt
    "_ZN70_$LT$collections..string..ParseError$u20$as$u20$core..fmt..Display$GT$3fmt17h2d68bc46969bda0eE" @ 2013
;   <core::fmt::num::Octal as core::fmt::num::GenericRadix>::base
    "_ZN70_$LT$core..fmt..num..Octal$u20$as$u20$core..fmt..num..GenericRadix$GT$4base17h6c5c34017ec82c61E" @ 2014
;   <core::fmt::num::Octal as core::fmt::num::GenericRadix>::digit
    "_ZN70_$LT$core..fmt..num..Octal$u20$as$u20$core..fmt..num..GenericRadix$GT$5digit17h375fb4acab8a93deE" @ 2015
;   <core::fmt::num::Octal as core::fmt::num::GenericRadix>::prefix
    "_ZN70_$LT$core..fmt..num..Octal$u20$as$u20$core..fmt..num..GenericRadix$GT$6prefix17hc404be794eff4a18E" @ 2016
;   <core::str::LinesAny<'a> as core::fmt::Debug>::fmt
    "_ZN70_$LT$core..str..LinesAny$LT$$u27$a$GT$$u20$as$u20$core..fmt..Debug$GT$3fmt17h534f497206414e41E" @ 2017
;   <rand::distributions::gamma::Gamma as core::fmt::Debug>::fmt
    "_ZN70_$LT$rand..distributions..gamma..Gamma$u20$as$u20$core..fmt..Debug$GT$3fmt17h1cb5e1761cc32846E" @ 2018
;   <std::ffi::c_str::CStr as collections::borrow::ToOwned>::to_owned
    "_ZN70_$LT$std..ffi..c_str..CStr$u20$as$u20$collections..borrow..ToOwned$GT$8to_owned17h34dce823f1ff9f1eE" @ 2019
;   <std::ffi::c_str::IntoStringError as std::error::Error>::description
    "_ZN70_$LT$std..ffi..c_str..IntoStringError$u20$as$u20$std..error..Error$GT$11description17h6525d64965e6c3caE" @ 2020
;   <std::ffi::c_str::IntoStringError as std::error::Error>::cause
    "_ZN70_$LT$std..ffi..c_str..IntoStringError$u20$as$u20$std..error..Error$GT$5cause17h3cb6f03ceb5ab7fbE" @ 2021
;   <std::net::parser::AddrParseError as std::error::Error>::description
    "_ZN70_$LT$std..net..parser..AddrParseError$u20$as$u20$std..error..Error$GT$11description17hbdd37946ba8f5978E" @ 2022
;   <std::path::Components<'a> as core::cmp::Ord>::cmp
    "_ZN70_$LT$std..path..Components$LT$$u27$a$GT$$u20$as$u20$core..cmp..Ord$GT$3cmp17heefa4b3c22e52885E" @ 2023
;   <std::sync::condvar::Condvar as core::default::Default>::default
    "_ZN70_$LT$std..sync..condvar..Condvar$u20$as$u20$core..default..Default$GT$7default17h6afa1a84a5db9380E" @ 2024
;   <std::sync::mpsc::RecvTimeoutError as core::fmt::Debug>::fmt
    "_ZN70_$LT$std..sync..mpsc..RecvTimeoutError$u20$as$u20$core..fmt..Debug$GT$3fmt17h77cf121aec3a120dE" @ 2025
;   <std::sys::imp::os::JoinPathsError as core::fmt::Debug>::fmt
    "_ZN70_$LT$std..sys..imp..os..JoinPathsError$u20$as$u20$core..fmt..Debug$GT$3fmt17ha5b994c25e2d3c0bE" @ 2026
;   <std::sys_common::backtrace::Frame as core::fmt::Debug>::fmt
    "_ZN70_$LT$std..sys_common..backtrace..Frame$u20$as$u20$core..fmt..Debug$GT$3fmt17had28d2afa9a101c7E" @ 2027
;   <std::sys_common::net::TcpListener as core::fmt::Debug>::fmt
    "_ZN70_$LT$std..sys_common..net..TcpListener$u20$as$u20$core..fmt..Debug$GT$3fmt17h9f2bebde304a0d60E" @ 2028
;   <std::sys_common::thread_local::Key as core::ops::Drop>::drop
    "_ZN70_$LT$std..sys_common..thread_local..Key$u20$as$u20$core..ops..Drop$GT$4drop17hb4a3aa7b3e714c77E" @ 2029
;   <std::thread::local::LocalKeyState as core::fmt::Debug>::fmt
    "_ZN70_$LT$std..thread..local..LocalKeyState$u20$as$u20$core..fmt..Debug$GT$3fmt17h371bac5e26d59c6bE" @ 2030
;   <std::time::duration::Duration as core::ops::AddAssign>::add_assign
    "_ZN70_$LT$std..time..duration..Duration$u20$as$u20$core..ops..AddAssign$GT$10add_assign17h49d75874f08835b1E" @ 2031
;   <std::time::duration::Duration as core::ops::SubAssign>::sub_assign
    "_ZN70_$LT$std..time..duration..Duration$u20$as$u20$core..ops..SubAssign$GT$10sub_assign17h7aaa8db3224d3827E" @ 2032
;   <alloc::boxed::Box<str> as core::default::Default>::default
    "_ZN71_$LT$alloc..boxed..Box$LT$str$GT$$u20$as$u20$core..default..Default$GT$7default17h4e61ca950103508eE" @ 2033
;   <collections::string::FromUtf8Error as core::fmt::Debug>::fmt
    "_ZN71_$LT$collections..string..FromUtf8Error$u20$as$u20$core..fmt..Debug$GT$3fmt17hb5fdcc6799f25a40E" @ 2034
;   <core::cell::BorrowRef<'b> as core::ops::Drop>::drop::_MSG_FILE_LINE
    "_ZN71_$LT$core..cell..BorrowRef$LT$$u27$b$GT$$u20$as$u20$core..ops..Drop$GT$4drop14_MSG_FILE_LINE17h4f2f81644edb6e91E" @ 2035 DATA
;   <core::fmt::Arguments<'a> as core::fmt::Debug>::fmt
    "_ZN71_$LT$core..fmt..Arguments$LT$$u27$a$GT$$u20$as$u20$core..fmt..Debug$GT$3fmt17h3e8cbe543f230a9bE" @ 2036
;   <core::fmt::Formatter<'a> as core::fmt::Write>::write_char
    "_ZN71_$LT$core..fmt..Formatter$LT$$u27$a$GT$$u20$as$u20$core..fmt..Write$GT$10write_char17h9dcdc0efd4b0fca1E" @ 2037
;   <core::fmt::Formatter<'a> as core::fmt::Write>::write_fmt
    "_ZN71_$LT$core..fmt..Formatter$LT$$u27$a$GT$$u20$as$u20$core..fmt..Write$GT$9write_fmt17h86d79fde630f2fa2E" @ 2038
;   <core::fmt::Formatter<'a> as core::fmt::Write>::write_str
    "_ZN71_$LT$core..fmt..Formatter$LT$$u27$a$GT$$u20$as$u20$core..fmt..Write$GT$9write_str17hde10b65bc051b2faE" @ 2039
;   <core::fmt::num::Binary as core::fmt::num::GenericRadix>::base
    "_ZN71_$LT$core..fmt..num..Binary$u20$as$u20$core..fmt..num..GenericRadix$GT$4base17h1d3c0310b2e6db56E" @ 2040
;   <core::fmt::num::Binary as core::fmt::num::GenericRadix>::digit
    "_ZN71_$LT$core..fmt..num..Binary$u20$as$u20$core..fmt..num..GenericRadix$GT$5digit17h1d95d169d87cb58bE" @ 2041
;   <core::fmt::num::Binary as core::fmt::num::GenericRadix>::prefix
    "_ZN71_$LT$core..fmt..num..Binary$u20$as$u20$core..fmt..num..GenericRadix$GT$6prefix17h6681cecb1f92d04aE" @ 2042
;   <core::hash::sip::Hasher<S> as core::hash::Hasher>::write::_MSG_FILE_LINE
    "_ZN71_$LT$core..hash..sip..Hasher$LT$S$GT$$u20$as$u20$core..hash..Hasher$GT$5write14_MSG_FILE_LINE17h5060820b723c8542E" @ 2043 DATA
;   <core::num::bignum::tests::Big8x3 as core::clone::Clone>::clone
    "_ZN71_$LT$core..num..bignum..tests..Big8x3$u20$as$u20$core..clone..Clone$GT$5clone17h5817b47305df4bacE" @ 2044
;   <core::num::dec2flt::FloatErrorKind as core::fmt::Debug>::fmt
    "_ZN71_$LT$core..num..dec2flt..FloatErrorKind$u20$as$u20$core..fmt..Debug$GT$3fmt17hf2600a8d05afc81bE" @ 2045
;   <core::str::pattern::TwoWaySearcher as core::fmt::Debug>::fmt
    "_ZN71_$LT$core..str..pattern..TwoWaySearcher$u20$as$u20$core..fmt..Debug$GT$3fmt17h3aebe59ed165132fE" @ 2046
;   <core::sync::atomic::AtomicI8 as core::default::Default>::default
    "_ZN71_$LT$core..sync..atomic..AtomicI8$u20$as$u20$core..default..Default$GT$7default17hc61014e9f2c37b36E" @ 2047
;   <core::sync::atomic::AtomicU8 as core::default::Default>::default
    "_ZN71_$LT$core..sync..atomic..AtomicU8$u20$as$u20$core..default..Default$GT$7default17hc704d947c7340feaE" @ 2048
;   <rand::reseeding::ReseedWithDefault as core::fmt::Debug>::fmt
    "_ZN71_$LT$rand..reseeding..ReseedWithDefault$u20$as$u20$core..fmt..Debug$GT$3fmt17hfc2fe71c5ee649cfE" @ 2049
;   <std::env::SplitPaths<'a> as core::fmt::Debug>::fmt
    "_ZN71_$LT$std..env..SplitPaths$LT$$u27$a$GT$$u20$as$u20$core..fmt..Debug$GT$3fmt17h7714c4ca0bd1605bE" @ 2050
;   <std::ffi::c_str::IntoStringError as core::fmt::Display>::fmt
    "_ZN71_$LT$std..ffi..c_str..IntoStringError$u20$as$u20$core..fmt..Display$GT$3fmt17h31c4cab0f28bf0f2E" @ 2051
;   <std::fs::File as std::sys::imp::ext::io::FromRawHandle>::from_raw_handle
    "_ZN71_$LT$std..fs..File$u20$as$u20$std..sys..imp..ext..io..FromRawHandle$GT$15from_raw_handle17hc91d79beafb9f658E" @ 2052
;   <std::fs::File as std::sys::imp::ext::io::IntoRawHandle>::into_raw_handle
    "_ZN71_$LT$std..fs..File$u20$as$u20$std..sys..imp..ext..io..IntoRawHandle$GT$15into_raw_handle17h5f8f17c597cbbfdeE" @ 2053
;   <std::net::LookupHost as core::iter::iterator::Iterator>::next
    "_ZN71_$LT$std..net..LookupHost$u20$as$u20$core..iter..iterator..Iterator$GT$4next17ha0fe3f2ce67630f8E" @ 2054
;   <std::net::parser::AddrParseError as core::fmt::Display>::fmt
    "_ZN71_$LT$std..net..parser..AddrParseError$u20$as$u20$core..fmt..Display$GT$3fmt17h1ec5d5eee377e79fE" @ 2055
;   <std::path::Component<'a> as core::fmt::Debug>::fmt
    "_ZN71_$LT$std..path..Component$LT$$u27$a$GT$$u20$as$u20$core..fmt..Debug$GT$3fmt17h9235740aab3bd70cE" @ 2056
;   <std::path::Display<'a> as core::fmt::Display>::fmt
    "_ZN71_$LT$std..path..Display$LT$$u27$a$GT$$u20$as$u20$core..fmt..Display$GT$3fmt17h896bea848f82303eE" @ 2057
;   <std::sync::mpsc::Receiver<T> as core::fmt::Debug>::fmt::__STATIC_FMTSTR
    "_ZN71_$LT$std..sync..mpsc..Receiver$LT$T$GT$$u20$as$u20$core..fmt..Debug$GT$3fmt15__STATIC_FMTSTR17h0f564a1f9e1e15b6E" @ 2058 DATA
;   <std::sync::mpsc::RecvTimeoutError as std::error::Error>::description
    "_ZN71_$LT$std..sync..mpsc..RecvTimeoutError$u20$as$u20$std..error..Error$GT$11description17hb13c4d2e3014bcedE" @ 2059
;   <std::sync::mpsc::RecvTimeoutError as std::error::Error>::cause
    "_ZN71_$LT$std..sync..mpsc..RecvTimeoutError$u20$as$u20$std..error..Error$GT$5cause17h5748390ffee6ab18E" @ 2060
;   <std::sync::mpsc::Sender<T> as core::clone::Clone>::clone::_FILE_LINE
    "_ZN71_$LT$std..sync..mpsc..Sender$LT$T$GT$$u20$as$u20$core..clone..Clone$GT$5clone10_FILE_LINE17h8aa316d20e072675E" @ 2061 DATA
;   <std::sync::rwlock::RwLock<T> as core::fmt::Debug>::fmt::__STATIC_FMTSTR
    "_ZN71_$LT$std..sync..rwlock..RwLock$LT$T$GT$$u20$as$u20$core..fmt..Debug$GT$3fmt15__STATIC_FMTSTR17h4276c393f626dd21E" @ 2062 DATA
;   <std::sync::rwlock::RwLock<T> as core::fmt::Debug>::fmt::__STATIC_FMTSTR
    "_ZN71_$LT$std..sync..rwlock..RwLock$LT$T$GT$$u20$as$u20$core..fmt..Debug$GT$3fmt15__STATIC_FMTSTR17h819bf160990bebbaE" @ 2063 DATA
;   <std::sync::rwlock::RwLock<T> as core::fmt::Debug>::fmt::__STATIC_FMTSTR
    "_ZN71_$LT$std..sync..rwlock..RwLock$LT$T$GT$$u20$as$u20$core..fmt..Debug$GT$3fmt15__STATIC_FMTSTR17ha42979584baaaf6cE" @ 2064 DATA
;   <std::sys::imp::fs::FilePermissions as core::fmt::Debug>::fmt
    "_ZN71_$LT$std..sys..imp..fs..FilePermissions$u20$as$u20$core..fmt..Debug$GT$3fmt17h72f54800cb3edfb5E" @ 2065
;   <std::sys::imp::os::JoinPathsError as std::error::Error>::description
    "_ZN71_$LT$std..sys..imp..os..JoinPathsError$u20$as$u20$std..error..Error$GT$11description17he5827473bc711a2cE" @ 2066
;   <std::sys::imp::process::ExitStatus as core::fmt::Debug>::fmt
    "_ZN71_$LT$std..sys..imp..process..ExitStatus$u20$as$u20$core..fmt..Debug$GT$3fmt17h988b2f3679576b52E" @ 2067
;   <collections::string::FromUtf16Error as core::fmt::Debug>::fmt
    "_ZN72_$LT$collections..string..FromUtf16Error$u20$as$u20$core..fmt..Debug$GT$3fmt17h5ea3be9e01977ff8E" @ 2068
;   <collections::string::FromUtf8Error as std::error::Error>::description
    "_ZN72_$LT$collections..string..FromUtf8Error$u20$as$u20$std..error..Error$GT$11description17hfa9039626b38b738E" @ 2069
;   <collections::string::ParseError as core::cmp::PartialEq>::eq
    "_ZN72_$LT$collections..string..ParseError$u20$as$u20$core..cmp..PartialEq$GT$2eq17h7c71a75dd385566eE" @ 2070
;   <core::fmt::num::Decimal as core::fmt::num::GenericRadix>::base
    "_ZN72_$LT$core..fmt..num..Decimal$u20$as$u20$core..fmt..num..GenericRadix$GT$4base17h5a421f761058e7ffE" @ 2071
;   <core::fmt::num::Decimal as core::fmt::num::GenericRadix>::digit
    "_ZN72_$LT$core..fmt..num..Decimal$u20$as$u20$core..fmt..num..GenericRadix$GT$5digit17hb2a95baa6fca7b9dE" @ 2072
;   <core::fmt::num::Decimal as core::fmt::num::GenericRadix>::prefix
    "_ZN72_$LT$core..fmt..num..Decimal$u20$as$u20$core..fmt..num..GenericRadix$GT$6prefix17h3ffc32ba1606aaffE" @ 2073
;   <core::num::dec2flt::ParseFloatError as core::fmt::Debug>::fmt
    "_ZN72_$LT$core..num..dec2flt..ParseFloatError$u20$as$u20$core..fmt..Debug$GT$3fmt17h8805b4e31f006b61E" @ 2074
;   <core::num::dec2flt::rawfp::Unpacked as core::fmt::Debug>::fmt
    "_ZN72_$LT$core..num..dec2flt..rawfp..Unpacked$u20$as$u20$core..fmt..Debug$GT$3fmt17hbab06484ee5b71ddE" @ 2075
;   <core::str::pattern::StrSearcherImpl as core::fmt::Debug>::fmt
    "_ZN72_$LT$core..str..pattern..StrSearcherImpl$u20$as$u20$core..fmt..Debug$GT$3fmt17ha706c3d15d6bc604E" @ 2076
;   <core::sync::atomic::AtomicI16 as core::default::Default>::default
    "_ZN72_$LT$core..sync..atomic..AtomicI16$u20$as$u20$core..default..Default$GT$7default17h295765ced6504b60E" @ 2077
;   <core::sync::atomic::AtomicI32 as core::default::Default>::default
    "_ZN72_$LT$core..sync..atomic..AtomicI32$u20$as$u20$core..default..Default$GT$7default17h7dc4ce212f976e25E" @ 2078
;   <core::sync::atomic::AtomicI64 as core::default::Default>::default
    "_ZN72_$LT$core..sync..atomic..AtomicI64$u20$as$u20$core..default..Default$GT$7default17h2e73778771abf173E" @ 2079
;   <core::sync::atomic::AtomicU16 as core::default::Default>::default
    "_ZN72_$LT$core..sync..atomic..AtomicU16$u20$as$u20$core..default..Default$GT$7default17h8b781c1eff3dfc26E" @ 2080
;   <core::sync::atomic::AtomicU32 as core::default::Default>::default
    "_ZN72_$LT$core..sync..atomic..AtomicU32$u20$as$u20$core..default..Default$GT$7default17hab23d29b4ae4af4dE" @ 2081
;   <core::sync::atomic::AtomicU64 as core::default::Default>::default
    "_ZN72_$LT$core..sync..atomic..AtomicU64$u20$as$u20$core..default..Default$GT$7default17hf4bb4771eaba59ddE" @ 2082
;   <rand::distributions::gamma::FisherF as core::fmt::Debug>::fmt
    "_ZN72_$LT$rand..distributions..gamma..FisherF$u20$as$u20$core..fmt..Debug$GT$3fmt17h9eed50a13b8e656bE" @ 2083
;   <rand::distributions::normal::Normal as core::fmt::Debug>::fmt
    "_ZN72_$LT$rand..distributions..normal..Normal$u20$as$u20$core..fmt..Debug$GT$3fmt17hf7452f2e876a9573E" @ 2084
;   <std::collections::hash::map::HashMap<K, V, S>>::shrink_to_fit::_FILE_LINE
    "_ZN72_$LT$std..collections..hash..map..HashMap$LT$K$C$$u20$V$C$$u20$S$GT$$GT$13shrink_to_fit10_FILE_LINE17h4709923faed2b92cE" @ 2085 DATA
;   <std::collections::hash::map::HashMap<K, V, S>>::shrink_to_fit::__STATIC_FMTSTR
    "_ZN72_$LT$std..collections..hash..map..HashMap$LT$K$C$$u20$V$C$$u20$S$GT$$GT$13shrink_to_fit15__STATIC_FMTSTR17h906293026fcf58acE" @ 2086 DATA
;   <std::collections::hash::map::HashMap<K, V, S>>::insert_hashed_nocheck::_FILE_LINE
    "_ZN72_$LT$std..collections..hash..map..HashMap$LT$K$C$$u20$V$C$$u20$S$GT$$GT$21insert_hashed_nocheck10_FILE_LINE17h8402d98e4d2b18cbE" @ 2087 DATA
;   <std::collections::hash::map::HashMap<K, V, S>>::insert_hashed_ordered::_FILE_LINE
    "_ZN72_$LT$std..collections..hash..map..HashMap$LT$K$C$$u20$V$C$$u20$S$GT$$GT$21insert_hashed_ordered10_FILE_LINE17hb53c4b57ca102eafE" @ 2088 DATA
;   <std::collections::hash::map::HashMap<K, V, S>>::resize::_FILE_LINE
    "_ZN72_$LT$std..collections..hash..map..HashMap$LT$K$C$$u20$V$C$$u20$S$GT$$GT$6resize10_FILE_LINE17h103a2f768ebb4f16E" @ 2089 DATA
;   <std::collections::hash::map::HashMap<K, V, S>>::resize::_FILE_LINE
    "_ZN72_$LT$std..collections..hash..map..HashMap$LT$K$C$$u20$V$C$$u20$S$GT$$GT$6resize10_FILE_LINE17h40e1260b2fe26ba2E" @ 2090 DATA
;   <std::collections::hash::map::HashMap<K, V, S>>::resize::_FILE_LINE
    "_ZN72_$LT$std..collections..hash..map..HashMap$LT$K$C$$u20$V$C$$u20$S$GT$$GT$6resize10_FILE_LINE17h9bb2352b818ff8cbE" @ 2091 DATA
;   <std::collections::hash::map::HashMap<K, V, S>>::resize::__STATIC_FMTSTR
    "_ZN72_$LT$std..collections..hash..map..HashMap$LT$K$C$$u20$V$C$$u20$S$GT$$GT$6resize15__STATIC_FMTSTR17h63e79bf649c51f86E" @ 2092 DATA
;   <std::collections::hash::map::HashMap<K, V, S>>::retain::_FILE_LINE
    "_ZN72_$LT$std..collections..hash..map..HashMap$LT$K$C$$u20$V$C$$u20$S$GT$$GT$6retain10_FILE_LINE17h05ab327334314d4cE" @ 2093 DATA
;   <std::env::Args as core::iter::traits::ExactSizeIterator>::len
    "_ZN72_$LT$std..env..Args$u20$as$u20$core..iter..traits..ExactSizeIterator$GT$3len17haf390fb350cba656E" @ 2094
;   <std::env::Args as core::iter::traits::ExactSizeIterator>::is_empty
    "_ZN72_$LT$std..env..Args$u20$as$u20$core..iter..traits..ExactSizeIterator$GT$8is_empty17h12841a6c02ebcc4dE" @ 2095
;   <std::ffi::os_str::OsStr as collections::borrow::ToOwned>::clone_into
    "_ZN72_$LT$std..ffi..os_str..OsStr$u20$as$u20$collections..borrow..ToOwned$GT$10clone_into17hec87aeb176f87d5cE" @ 2096
;   <std::ffi::os_str::OsStr as collections::borrow::ToOwned>::to_owned
    "_ZN72_$LT$std..ffi..os_str..OsStr$u20$as$u20$collections..borrow..ToOwned$GT$8to_owned17ha8a58b8f7a8c8caaE" @ 2097
;   <std::path::Components<'a> as core::fmt::Debug>::fmt
    "_ZN72_$LT$std..path..Components$LT$$u27$a$GT$$u20$as$u20$core..fmt..Debug$GT$3fmt17h1d43c4e67f64374bE" @ 2098
;   <std::sync::mpsc::RecvTimeoutError as core::fmt::Display>::fmt
    "_ZN72_$LT$std..sync..mpsc..RecvTimeoutError$u20$as$u20$core..fmt..Display$GT$3fmt17h96483a5d7746dfc0E" @ 2099
;   <std::sys::imp::os::JoinPathsError as core::fmt::Display>::fmt
    "_ZN72_$LT$std..sys..imp..os..JoinPathsError$u20$as$u20$core..fmt..Display$GT$3fmt17h21ccbff13b355b02E" @ 2100
;   <std::sys::imp::time::SystemTime as core::cmp::PartialEq>::eq
    "_ZN72_$LT$std..sys..imp..time..SystemTime$u20$as$u20$core..cmp..PartialEq$GT$2eq17h515bf9dc36d7fae4E" @ 2101
;   <std_unicode::char::DecodeUtf16Error as core::fmt::Debug>::fmt
    "_ZN72_$LT$std_unicode..char..DecodeUtf16Error$u20$as$u20$core..fmt..Debug$GT$3fmt17hcc3beec63c0553b3E" @ 2102
;   <&'a std::net::tcp::TcpStream as std::io::Read>::read_to_end
    "_ZN73_$LT$$RF$$u27$a$u20$std..net..tcp..TcpStream$u20$as$u20$std..io..Read$GT$11read_to_end17h3795edcf91013a88E" @ 2103
;   <&'a std::net::tcp::TcpStream as std::io::Read>::read
    "_ZN73_$LT$$RF$$u27$a$u20$std..net..tcp..TcpStream$u20$as$u20$std..io..Read$GT$4read17h538d243f39b0a028E" @ 2104
;   <collections::string::FromUtf16Error as std::error::Error>::description
    "_ZN73_$LT$collections..string..FromUtf16Error$u20$as$u20$std..error..Error$GT$11description17h3d9d200a150c6eb7E" @ 2105
;   <collections::string::FromUtf8Error as core::fmt::Display>::fmt
    "_ZN73_$LT$collections..string..FromUtf8Error$u20$as$u20$core..fmt..Display$GT$3fmt17hb94e5ffb93e4868cE" @ 2106
;   <core::fmt::Arguments<'a> as core::fmt::Display>::fmt
    "_ZN73_$LT$core..fmt..Arguments$LT$$u27$a$GT$$u20$as$u20$core..fmt..Display$GT$3fmt17h51e63b2c9550a7cfE" @ 2107
;   <core::fmt::num::LowerHex as core::fmt::num::GenericRadix>::base
    "_ZN73_$LT$core..fmt..num..LowerHex$u20$as$u20$core..fmt..num..GenericRadix$GT$4base17h023231d101bd083cE" @ 2108
;   <core::fmt::num::LowerHex as core::fmt::num::GenericRadix>::digit
    "_ZN73_$LT$core..fmt..num..LowerHex$u20$as$u20$core..fmt..num..GenericRadix$GT$5digit17ha9d421ae5d39d28aE" @ 2109
;   <core::fmt::num::LowerHex as core::fmt::num::GenericRadix>::prefix
    "_ZN73_$LT$core..fmt..num..LowerHex$u20$as$u20$core..fmt..num..GenericRadix$GT$6prefix17h1f255889ff6f314aE" @ 2110
;   <core::fmt::num::UpperHex as core::fmt::num::GenericRadix>::base
    "_ZN73_$LT$core..fmt..num..UpperHex$u20$as$u20$core..fmt..num..GenericRadix$GT$4base17h9489ac3054b204c2E" @ 2111
;   <core::fmt::num::UpperHex as core::fmt::num::GenericRadix>::digit
    "_ZN73_$LT$core..fmt..num..UpperHex$u20$as$u20$core..fmt..num..GenericRadix$GT$5digit17hc88f976065851e37E" @ 2112
;   <core::fmt::num::UpperHex as core::fmt::num::GenericRadix>::prefix
    "_ZN73_$LT$core..fmt..num..UpperHex$u20$as$u20$core..fmt..num..GenericRadix$GT$6prefix17hfca89fc85c69cc60E" @ 2113
;   <core::num::bignum::tests::Big8x3 as core::cmp::PartialEq>::eq
    "_ZN73_$LT$core..num..bignum..tests..Big8x3$u20$as$u20$core..cmp..PartialEq$GT$2eq17ha0d44875db963bf6E" @ 2114
;   <core::num::dec2flt::ParseFloatError as std::error::Error>::description
    "_ZN73_$LT$core..num..dec2flt..ParseFloatError$u20$as$u20$std..error..Error$GT$11description17h56d7681286131b4dE" @ 2115
;   <core::num::flt2dec::decoder::Decoded as core::fmt::Debug>::fmt
    "_ZN73_$LT$core..num..flt2dec..decoder..Decoded$u20$as$u20$core..fmt..Debug$GT$3fmt17he13299b0a965f1afE" @ 2116
;   <core::ops::RangeInclusive<Idx> as core::fmt::Debug>::fmt::__STATIC_FMTSTR
    "_ZN73_$LT$core..ops..RangeInclusive$LT$Idx$GT$$u20$as$u20$core..fmt..Debug$GT$3fmt15__STATIC_FMTSTR17h9dbebfc1e518a331E" @ 2117 DATA
;   <core::ops::RangeInclusive<Idx> as core::fmt::Debug>::fmt::__STATIC_FMTSTR
    "_ZN73_$LT$core..ops..RangeInclusive$LT$Idx$GT$$u20$as$u20$core..fmt..Debug$GT$3fmt15__STATIC_FMTSTR17hccd4ba638b53ab8cE" @ 2118 DATA
;   <core::str::CharIndices<'a> as core::fmt::Debug>::fmt
    "_ZN73_$LT$core..str..CharIndices$LT$$u27$a$GT$$u20$as$u20$core..fmt..Debug$GT$3fmt17hf18e58a38805ebd5E" @ 2119
;   <core::sync::atomic::AtomicBool as core::default::Default>::default
    "_ZN73_$LT$core..sync..atomic..AtomicBool$u20$as$u20$core..default..Default$GT$7default17h39c31e78f3432b2cE" @ 2120
;   <rand::distributions::gamma::StudentT as core::fmt::Debug>::fmt
    "_ZN73_$LT$rand..distributions..gamma..StudentT$u20$as$u20$core..fmt..Debug$GT$3fmt17h1e108da295545ff0E" @ 2121
;   <std::collections::hash::table::Bucket<K, V, M>>::at_index::_FILE_LINE
    "_ZN73_$LT$std..collections..hash..table..Bucket$LT$K$C$$u20$V$C$$u20$M$GT$$GT$8at_index10_FILE_LINE17h048d6a226ea9fa86E" @ 2122 DATA
;   <std::fs::Metadata as std::sys::imp::ext::fs::MetadataExt>::creation_time
    "_ZN73_$LT$std..fs..Metadata$u20$as$u20$std..sys..imp..ext..fs..MetadataExt$GT$13creation_time17h36ec85aa00344d1fE" @ 2123
;   <std::fs::Metadata as std::sys::imp::ext::fs::MetadataExt>::file_attributes
    "_ZN73_$LT$std..fs..Metadata$u20$as$u20$std..sys..imp..ext..fs..MetadataExt$GT$15file_attributes17h380a693e3fd834bcE" @ 2124
;   <std::fs::Metadata as std::sys::imp::ext::fs::MetadataExt>::last_write_time
    "_ZN73_$LT$std..fs..Metadata$u20$as$u20$std..sys..imp..ext..fs..MetadataExt$GT$15last_write_time17h9b8e5436677b8aa3E" @ 2125
;   <std::fs::Metadata as std::sys::imp::ext::fs::MetadataExt>::last_access_time
    "_ZN73_$LT$std..fs..Metadata$u20$as$u20$std..sys..imp..ext..fs..MetadataExt$GT$16last_access_time17hf2d6e76a36b5ef0dE" @ 2126
;   <std::fs::Metadata as std::sys::imp::ext::fs::MetadataExt>::file_size
    "_ZN73_$LT$std..fs..Metadata$u20$as$u20$std..sys..imp..ext..fs..MetadataExt$GT$9file_size17h38092084041b80d6E" @ 2127
;   <std::io::stdio::StdinLock<'a> as std::io::Read>::read_to_end
    "_ZN73_$LT$std..io..stdio..StdinLock$LT$$u27$a$GT$$u20$as$u20$std..io..Read$GT$11read_to_end17h91013775d0762962E" @ 2128
;   <std::io::stdio::StdinLock<'a> as std::io::Read>::read
    "_ZN73_$LT$std..io..stdio..StdinLock$LT$$u27$a$GT$$u20$as$u20$std..io..Read$GT$4read17h1fec54979efd694dE" @ 2129
;   <std::net::ip::Ipv4Addr as core::convert::From<u32>>::from
    "_ZN73_$LT$std..net..ip..Ipv4Addr$u20$as$u20$core..convert..From$LT$u32$GT$$GT$4from17h94f51618d25c6d45E" @ 2130
;   <std::sync::mpsc::SyncSender<T> as core::fmt::Debug>::fmt::__STATIC_FMTSTR
    "_ZN73_$LT$std..sync..mpsc..SyncSender$LT$T$GT$$u20$as$u20$core..fmt..Debug$GT$3fmt15__STATIC_FMTSTR17hb38b8b995d65bb76E" @ 2131 DATA
;   <std::sys::imp::c::WIN32_FIND_DATAW as core::clone::Clone>::clone
    "_ZN73_$LT$std..sys..imp..c..WIN32_FIND_DATAW$u20$as$u20$core..clone..Clone$GT$5clone17hca5743a8302337c0E" @ 2132
;   <std::sys::imp::fs::FindNextFileHandle as core::ops::Drop>::drop
    "_ZN73_$LT$std..sys..imp..fs..FindNextFileHandle$u20$as$u20$core..ops..Drop$GT$4drop17h6766499ca2c84251E" @ 2133
;   <std::sys::imp::os::Env as core::iter::iterator::Iterator>::next
    "_ZN73_$LT$std..sys..imp..os..Env$u20$as$u20$core..iter..iterator..Iterator$GT$4next17h578d640e516392e2E" @ 2134
;   <std::sys::imp::process::ExitStatus as core::fmt::Display>::fmt
    "_ZN73_$LT$std..sys..imp..process..ExitStatus$u20$as$u20$core..fmt..Display$GT$3fmt17h78e01c23982fd2c1E" @ 2135
;   <std::sys::imp::time::SystemTime as core::cmp::PartialOrd>::partial_cmp
    "_ZN73_$LT$std..sys..imp..time..SystemTime$u20$as$u20$core..cmp..PartialOrd$GT$11partial_cmp17hd0b9038b44b85debE" @ 2136
;   <std_unicode::char::CaseMappingIter as core::fmt::Display>::fmt
    "_ZN73_$LT$std_unicode..char..CaseMappingIter$u20$as$u20$core..fmt..Display$GT$3fmt17hb41168a26455a6ccE" @ 2137
;   <std_unicode::char::DecodeUtf16Error as std::error::Error>::description
    "_ZN73_$LT$std_unicode..char..DecodeUtf16Error$u20$as$u20$std..error..Error$GT$11description17h1f6b78dea4405ce8E" @ 2138
;   <&'a std::net::tcp::TcpStream as std::io::Write>::flush
    "_ZN74_$LT$$RF$$u27$a$u20$std..net..tcp..TcpStream$u20$as$u20$std..io..Write$GT$5flush17h4b073ea15e3f5adeE" @ 2139
;   <&'a std::net::tcp::TcpStream as std::io::Write>::write
    "_ZN74_$LT$$RF$$u27$a$u20$std..net..tcp..TcpStream$u20$as$u20$std..io..Write$GT$5write17h7e15081531aac682E" @ 2140
;   <collections::string::FromUtf16Error as core::fmt::Display>::fmt
    "_ZN74_$LT$collections..string..FromUtf16Error$u20$as$u20$core..fmt..Display$GT$3fmt17hc1d605d640839913E" @ 2141
;   <core::cell::BorrowRef<'b> as core::clone::Clone>::clone::_MSG_FILE_LINE
    "_ZN74_$LT$core..cell..BorrowRef$LT$$u27$b$GT$$u20$as$u20$core..clone..Clone$GT$5clone14_MSG_FILE_LINE17h0cc93bdedd31b1a5E" @ 2142 DATA
;   <core::cell::BorrowRef<'b> as core::clone::Clone>::clone::_MSG_FILE_LINE
    "_ZN74_$LT$core..cell..BorrowRef$LT$$u27$b$GT$$u20$as$u20$core..clone..Clone$GT$5clone14_MSG_FILE_LINE17hee33965c2c13dc27E" @ 2143 DATA
;   <core::cell::BorrowRefMut<'b> as core::ops::Drop>::drop::_MSG_FILE_LINE
    "_ZN74_$LT$core..cell..BorrowRefMut$LT$$u27$b$GT$$u20$as$u20$core..ops..Drop$GT$4drop14_MSG_FILE_LINE17hea12b7c09cb9ae77E" @ 2144 DATA
;   <core::char::EscapeDebug as core::iter::iterator::Iterator>::next
    "_ZN74_$LT$core..char..EscapeDebug$u20$as$u20$core..iter..iterator..Iterator$GT$4next17h1dac26f08a0f4e71E" @ 2145
;   <core::char::EscapeDebug as core::iter::iterator::Iterator>::size_hint
    "_ZN74_$LT$core..char..EscapeDebug$u20$as$u20$core..iter..iterator..Iterator$GT$9size_hint17h6ed3258dbacf6ca0E" @ 2146
;   <core::fmt::ArgumentV1<'a> as core::clone::Clone>::clone
    "_ZN74_$LT$core..fmt..ArgumentV1$LT$$u27$a$GT$$u20$as$u20$core..clone..Clone$GT$5clone17h9f2e6053f1afd2b3E" @ 2147
;   <core::num::bignum::tests::Big8x3 as core::cmp::PartialOrd>::partial_cmp
    "_ZN74_$LT$core..num..bignum..tests..Big8x3$u20$as$u20$core..cmp..PartialOrd$GT$11partial_cmp17h5730a90fe0615d7aE" @ 2148
;   <core::num::dec2flt::ParseFloatError as core::fmt::Display>::fmt
    "_ZN74_$LT$core..num..dec2flt..ParseFloatError$u20$as$u20$core..fmt..Display$GT$3fmt17h354db85edd78d90dE" @ 2149
;   <core::sync::atomic::AtomicIsize as core::default::Default>::default
    "_ZN74_$LT$core..sync..atomic..AtomicIsize$u20$as$u20$core..default..Default$GT$7default17hf2b7414a57e45b60E" @ 2150
;   <core::sync::atomic::AtomicUsize as core::default::Default>::default
    "_ZN74_$LT$core..sync..atomic..AtomicUsize$u20$as$u20$core..default..Default$GT$7default17h5d13d27a94f078fcE" @ 2151
;   <rand::distributions::exponential::Exp as core::fmt::Debug>::fmt
    "_ZN74_$LT$rand..distributions..exponential..Exp$u20$as$u20$core..fmt..Debug$GT$3fmt17hf7a96811fe7c7f62E" @ 2152
;   <std::env::Args as core::iter::traits::DoubleEndedIterator>::next_back
    "_ZN74_$LT$std..env..Args$u20$as$u20$core..iter..traits..DoubleEndedIterator$GT$9next_back17h6342ef0434130674E" @ 2153
;   <std::env::ArgsOs as core::iter::traits::ExactSizeIterator>::len
    "_ZN74_$LT$std..env..ArgsOs$u20$as$u20$core..iter..traits..ExactSizeIterator$GT$3len17hd9053ba97354b825E" @ 2154
;   <std::env::ArgsOs as core::iter::traits::ExactSizeIterator>::is_empty
    "_ZN74_$LT$std..env..ArgsOs$u20$as$u20$core..iter..traits..ExactSizeIterator$GT$8is_empty17h7daa5d763a6117d2E" @ 2155
;   <std::io::buffered::BufReader<R> as core::fmt::Debug>::fmt::__STATIC_FMTSTR
    "_ZN74_$LT$std..io..buffered..BufReader$LT$R$GT$$u20$as$u20$core..fmt..Debug$GT$3fmt15__STATIC_FMTSTR17h43db00b9aa54f7aaE" @ 2156 DATA
;   <std::io::buffered::BufReader<R> as std::io::BufRead>::fill_buf::_FILE_LINE
    "_ZN74_$LT$std..io..buffered..BufReader$LT$R$GT$$u20$as$u20$std..io..BufRead$GT$8fill_buf10_FILE_LINE17h1601b6de10210165E" @ 2157 DATA
;   <std::io::buffered::BufWriter<W> as core::fmt::Debug>::fmt::__STATIC_FMTSTR
    "_ZN74_$LT$std..io..buffered..BufWriter$LT$W$GT$$u20$as$u20$core..fmt..Debug$GT$3fmt15__STATIC_FMTSTR17h86bcd66584f822f5E" @ 2158 DATA
;   <std::net::ip::Ipv6Addr as core::convert::From<u128>>::from
    "_ZN74_$LT$std..net..ip..Ipv6Addr$u20$as$u20$core..convert..From$LT$u128$GT$$GT$4from17h1ca6c2e9db38f4a9E" @ 2159
;   <std::net::tcp::Incoming<'a> as core::fmt::Debug>::fmt
    "_ZN74_$LT$std..net..tcp..Incoming$LT$$u27$a$GT$$u20$as$u20$core..fmt..Debug$GT$3fmt17hf4d8d5820d0bec67E" @ 2160
;   <std::sync::barrier::BarrierWaitResult as core::fmt::Debug>::fmt
    "_ZN74_$LT$std..sync..barrier..BarrierWaitResult$u20$as$u20$core..fmt..Debug$GT$3fmt17h4a622b37bb873aa6E" @ 2161
;   <std::sync::condvar::WaitTimeoutResult as core::fmt::Debug>::fmt
    "_ZN74_$LT$std..sync..condvar..WaitTimeoutResult$u20$as$u20$core..fmt..Debug$GT$3fmt17hc3e071fde4780b2dE" @ 2162
;   <std::sync::mpsc::sync::Packet<T> as core::ops::Drop>::drop::_FILE_LINE
    "_ZN74_$LT$std..sync..mpsc..sync..Packet$LT$T$GT$$u20$as$u20$core..ops..Drop$GT$4drop10_FILE_LINE17h3548fa43ddefb524E" @ 2163 DATA
;   <std::sync::mpsc::sync::Packet<T> as core::ops::Drop>::drop::_FILE_LINE
    "_ZN74_$LT$std..sync..mpsc..sync..Packet$LT$T$GT$$u20$as$u20$core..ops..Drop$GT$4drop10_FILE_LINE17h356196a829d1b06eE" @ 2164 DATA
;   <std::sync::mpsc::sync::Packet<T> as core::ops::Drop>::drop::_FILE_LINE
    "_ZN74_$LT$std..sync..mpsc..sync..Packet$LT$T$GT$$u20$as$u20$core..ops..Drop$GT$4drop10_FILE_LINE17h933b494cec81352eE" @ 2165 DATA
;   <std::sync::mpsc::sync::Packet<T> as core::ops::Drop>::drop::__STATIC_FMTSTR
    "_ZN74_$LT$std..sync..mpsc..sync..Packet$LT$T$GT$$u20$as$u20$core..ops..Drop$GT$4drop15__STATIC_FMTSTR17h3146fe7276954af5E" @ 2166 DATA
;   <std_unicode::char::DecodeUtf16Error as core::fmt::Display>::fmt
    "_ZN74_$LT$std_unicode..char..DecodeUtf16Error$u20$as$u20$core..fmt..Display$GT$3fmt17h93f0ca7b0d9d09e6E" @ 2167
;   <&'a std::sys::imp::net::Socket as std::io::Read>::read_to_end
    "_ZN75_$LT$$RF$$u27$a$u20$std..sys..imp..net..Socket$u20$as$u20$std..io..Read$GT$11read_to_end17hc4b3c0454c8b850dE" @ 2168
;   <&'a std::sys::imp::net::Socket as std::io::Read>::read
    "_ZN75_$LT$$RF$$u27$a$u20$std..sys..imp..net..Socket$u20$as$u20$std..io..Read$GT$4read17h167d87345689dbbbE" @ 2169
;   <core::num::flt2dec::Part<'a> as core::fmt::Debug>::fmt
    "_ZN75_$LT$core..num..flt2dec..Part$LT$$u27$a$GT$$u20$as$u20$core..fmt..Debug$GT$3fmt17h13f9ecde54b7dbb2E" @ 2170
;   <core::ops::RangeToInclusive<Idx> as core::fmt::Debug>::fmt::__STATIC_FMTSTR
    "_ZN75_$LT$core..ops..RangeToInclusive$LT$Idx$GT$$u20$as$u20$core..fmt..Debug$GT$3fmt15__STATIC_FMTSTR17ha9b325c990c1e1e8E" @ 2171 DATA
;   <rand::distributions::exponential::Exp1 as core::fmt::Debug>::fmt
    "_ZN75_$LT$rand..distributions..exponential..Exp1$u20$as$u20$core..fmt..Debug$GT$3fmt17h578bbcdddd06f7c2E" @ 2172
;   <rand::distributions::gamma::ChiSquared as core::fmt::Debug>::fmt
    "_ZN75_$LT$rand..distributions..gamma..ChiSquared$u20$as$u20$core..fmt..Debug$GT$3fmt17hdb156205c40fb56aE" @ 2173
;   <rand::distributions::normal::LogNormal as core::fmt::Debug>::fmt
    "_ZN75_$LT$rand..distributions..normal..LogNormal$u20$as$u20$core..fmt..Debug$GT$3fmt17h3a0c40f3008cc24bE" @ 2174
;   <std::ffi::c_str::FromBytesWithNulError as core::fmt::Debug>::fmt
    "_ZN75_$LT$std..ffi..c_str..FromBytesWithNulError$u20$as$u20$core..fmt..Debug$GT$3fmt17h2a8d8855971acda6E" @ 2175
;   <std::ffi::os_str::OsStr as core::cmp::PartialEq<str>>::eq
    "_ZN75_$LT$std..ffi..os_str..OsStr$u20$as$u20$core..cmp..PartialEq$LT$str$GT$$GT$2eq17h4188d752b51cd037E" @ 2176
;   <std::io::buffered::LineWriter<W> as core::fmt::Debug>::fmt::__STATIC_FMTSTR
    "_ZN75_$LT$std..io..buffered..LineWriter$LT$W$GT$$u20$as$u20$core..fmt..Debug$GT$3fmt15__STATIC_FMTSTR17hc0599ffebb03e68aE" @ 2177 DATA
;   <std::io::stdio::StderrLock<'a> as std::io::Write>::flush
    "_ZN75_$LT$std..io..stdio..StderrLock$LT$$u27$a$GT$$u20$as$u20$std..io..Write$GT$5flush17hac01efdd1c126dfeE" @ 2178
;   <std::io::stdio::StderrLock<'a> as std::io::Write>::write
    "_ZN75_$LT$std..io..stdio..StderrLock$LT$$u27$a$GT$$u20$as$u20$std..io..Write$GT$5write17had1ccce7a4b46b3eE" @ 2179
;   <std::io::stdio::StdoutLock<'a> as std::io::Write>::flush
    "_ZN75_$LT$std..io..stdio..StdoutLock$LT$$u27$a$GT$$u20$as$u20$std..io..Write$GT$5flush17h4d02f99233586fe3E" @ 2180
;   <std::io::stdio::StdoutLock<'a> as std::io::Write>::write
    "_ZN75_$LT$std..io..stdio..StdoutLock$LT$$u27$a$GT$$u20$as$u20$std..io..Write$GT$5write17h6805c83035965a24E" @ 2181
;   <std::panicking::Location<'a> as core::fmt::Debug>::fmt
    "_ZN75_$LT$std..panicking..Location$LT$$u27$a$GT$$u20$as$u20$core..fmt..Debug$GT$3fmt17h2a9f376b74da3e03E" @ 2182
;   <std::path::PrefixComponent<'a> as core::cmp::Ord>::cmp
    "_ZN75_$LT$std..path..PrefixComponent$LT$$u27$a$GT$$u20$as$u20$core..cmp..Ord$GT$3cmp17hf81227dd1f58c154E" @ 2183
;   <std::time::duration::Duration as core::ops::Div<u32>>::div
    "_ZN75_$LT$std..time..duration..Duration$u20$as$u20$core..ops..Div$LT$u32$GT$$GT$3div17h103b31b0b91d5028E" @ 2184
;   <std::time::duration::Duration as core::ops::Mul<u32>>::mul
    "_ZN75_$LT$std..time..duration..Duration$u20$as$u20$core..ops..Mul$LT$u32$GT$$GT$3mul17hc6f34ccf3f2e1146E" @ 2185
;   <&'a std::sys::imp::stdio::Stdin as std::io::Read>::read_to_end
    "_ZN76_$LT$$RF$$u27$a$u20$std..sys..imp..stdio..Stdin$u20$as$u20$std..io..Read$GT$11read_to_end17h73edb7fb0dd67da6E" @ 2186
;   <&'a std::sys::imp::stdio::Stdin as std::io::Read>::read
    "_ZN76_$LT$$RF$$u27$a$u20$std..sys..imp..stdio..Stdin$u20$as$u20$std..io..Read$GT$4read17hc0771627480de1d0E" @ 2187
;   <collections::string::Drain<'a> as core::ops::Drop>::drop
    "_ZN76_$LT$collections..string..Drain$LT$$u27$a$GT$$u20$as$u20$core..ops..Drop$GT$4drop17h747353c2190d0958E" @ 2188
;   <core::char::EscapeDefault as core::iter::iterator::Iterator>::nth
    "_ZN76_$LT$core..char..EscapeDefault$u20$as$u20$core..iter..iterator..Iterator$GT$3nth17h339cd222565e9ad4E" @ 2189
;   <core::char::EscapeDefault as core::iter::iterator::Iterator>::last
    "_ZN76_$LT$core..char..EscapeDefault$u20$as$u20$core..iter..iterator..Iterator$GT$4last17h5e4f933f6a4ac93bE" @ 2190
;   <core::char::EscapeDefault as core::iter::iterator::Iterator>::next
    "_ZN76_$LT$core..char..EscapeDefault$u20$as$u20$core..iter..iterator..Iterator$GT$4next17hc0f8106a83b5adcbE" @ 2191
;   <core::char::EscapeUnicode as core::iter::iterator::Iterator>::last
    "_ZN76_$LT$core..char..EscapeUnicode$u20$as$u20$core..iter..iterator..Iterator$GT$4last17hdf1e2d23ee6efa50E" @ 2192
;   <core::char::EscapeUnicode as core::iter::iterator::Iterator>::next
    "_ZN76_$LT$core..char..EscapeUnicode$u20$as$u20$core..iter..iterator..Iterator$GT$4next17h06199c6221856621E" @ 2193
;   <std::ascii::EscapeDefault as core::iter::iterator::Iterator>::next
    "_ZN76_$LT$std..ascii..EscapeDefault$u20$as$u20$core..iter..iterator..Iterator$GT$4next17h322ed37c2180831dE" @ 2194
;   <std::ascii::EscapeDefault as core::iter::iterator::Iterator>::size_hint
    "_ZN76_$LT$std..ascii..EscapeDefault$u20$as$u20$core..iter..iterator..Iterator$GT$9size_hint17hc4aea76c85cdddbcE" @ 2195
;   <std::env::ArgsOs as core::iter::traits::DoubleEndedIterator>::next_back
    "_ZN76_$LT$std..env..ArgsOs$u20$as$u20$core..iter..traits..DoubleEndedIterator$GT$9next_back17h806c4960b3b703f6E" @ 2196
;   <std::ffi::c_str::FromBytesWithNulError as std::error::Error>::description
    "_ZN76_$LT$std..ffi..c_str..FromBytesWithNulError$u20$as$u20$std..error..Error$GT$11description17h454b5839a9cb221fE" @ 2197
;   <std::io::stdio::StdinLock<'a> as core::fmt::Debug>::fmt
    "_ZN76_$LT$std..io..stdio..StdinLock$LT$$u27$a$GT$$u20$as$u20$core..fmt..Debug$GT$3fmt17hed4865b2416d91faE" @ 2198
;   <std::io::stdio::StdinLock<'a> as std::io::BufRead>::consume
    "_ZN76_$LT$std..io..stdio..StdinLock$LT$$u27$a$GT$$u20$as$u20$std..io..BufRead$GT$7consume17h22f90a664f2cb1b9E" @ 2199
;   <std::io::stdio::StdinLock<'a> as std::io::BufRead>::fill_buf
    "_ZN76_$LT$std..io..stdio..StdinLock$LT$$u27$a$GT$$u20$as$u20$std..io..BufRead$GT$8fill_buf17hf3b5a6fbcdd66519E" @ 2200
;   <std::net::addr::SocketAddr as std::net::addr::ToSocketAddrs>::to_socket_addrs
    "_ZN76_$LT$std..net..addr..SocketAddr$u20$as$u20$std..net..addr..ToSocketAddrs$GT$15to_socket_addrs17h714c037fa9514994E" @ 2201
;   <std::panicking::PanicInfo<'a> as core::fmt::Debug>::fmt
    "_ZN76_$LT$std..panicking..PanicInfo$LT$$u27$a$GT$$u20$as$u20$core..fmt..Debug$GT$3fmt17hf93ab1cd5f5a2f59E" @ 2202
;   <std::path::Components<'a> as core::cmp::PartialEq>::eq
    "_ZN76_$LT$std..path..Components$LT$$u27$a$GT$$u20$as$u20$core..cmp..PartialEq$GT$2eq17h1bfe793c25cc6dcaE" @ 2203
;   <std::sync::mpsc::shared::Packet<T> as core::ops::Drop>::drop::_FILE_LINE
    "_ZN76_$LT$std..sync..mpsc..shared..Packet$LT$T$GT$$u20$as$u20$core..ops..Drop$GT$4drop10_FILE_LINE17h98d8426f1e48cd41E" @ 2204 DATA
;   <std::sync::mpsc::shared::Packet<T> as core::ops::Drop>::drop::_FILE_LINE
    "_ZN76_$LT$std..sync..mpsc..shared..Packet$LT$T$GT$$u20$as$u20$core..ops..Drop$GT$4drop10_FILE_LINE17hab2736c5c704e61eE" @ 2205 DATA
;   <std::sync::mpsc::shared::Packet<T> as core::ops::Drop>::drop::_FILE_LINE
    "_ZN76_$LT$std..sync..mpsc..shared..Packet$LT$T$GT$$u20$as$u20$core..ops..Drop$GT$4drop10_FILE_LINE17hc4728c8e28176d00E" @ 2206 DATA
;   <std::sync::mpsc::shared::Packet<T> as core::ops::Drop>::drop::__STATIC_FMTSTR
    "_ZN76_$LT$std..sync..mpsc..shared..Packet$LT$T$GT$$u20$as$u20$core..ops..Drop$GT$4drop15__STATIC_FMTSTR17h240e1aecf309dbdbE" @ 2207 DATA
;   <std::sync::mpsc::shared::Packet<T> as core::ops::Drop>::drop::__STATIC_FMTSTR
    "_ZN76_$LT$std..sync..mpsc..shared..Packet$LT$T$GT$$u20$as$u20$core..ops..Drop$GT$4drop15__STATIC_FMTSTR17h33c7318eddd34ac3E" @ 2208 DATA
;   <std::sync::mpsc::shared::Packet<T> as core::ops::Drop>::drop::__STATIC_FMTSTR
    "_ZN76_$LT$std..sync..mpsc..shared..Packet$LT$T$GT$$u20$as$u20$core..ops..Drop$GT$4drop15__STATIC_FMTSTR17haeac5b49a3ec987bE" @ 2209 DATA
;   <std::sync::mpsc::stream::Packet<T> as core::ops::Drop>::drop::_FILE_LINE
    "_ZN76_$LT$std..sync..mpsc..stream..Packet$LT$T$GT$$u20$as$u20$core..ops..Drop$GT$4drop10_FILE_LINE17h0ae1c63f66d79f16E" @ 2210 DATA
;   <std::sync::mpsc::stream::Packet<T> as core::ops::Drop>::drop::_FILE_LINE
    "_ZN76_$LT$std..sync..mpsc..stream..Packet$LT$T$GT$$u20$as$u20$core..ops..Drop$GT$4drop10_FILE_LINE17ha0402492aefa1b4dE" @ 2211 DATA
;   <std::sync::mpsc::stream::Packet<T> as core::ops::Drop>::drop::__STATIC_FMTSTR
    "_ZN76_$LT$std..sync..mpsc..stream..Packet$LT$T$GT$$u20$as$u20$core..ops..Drop$GT$4drop15__STATIC_FMTSTR17h654e29355685c93eE" @ 2212 DATA
;   <std::sync::mpsc::stream::Packet<T> as core::ops::Drop>::drop::__STATIC_FMTSTR
    "_ZN76_$LT$std..sync..mpsc..stream..Packet$LT$T$GT$$u20$as$u20$core..ops..Drop$GT$4drop15__STATIC_FMTSTR17heb313c86a504b238E" @ 2213 DATA
;   <std::sys::imp::args::Args as core::iter::iterator::Iterator>::next
    "_ZN76_$LT$std..sys..imp..args..Args$u20$as$u20$core..iter..iterator..Iterator$GT$4next17hdada3358637db0bbE" @ 2214
;   <std::sys::imp::args::Args as core::iter::iterator::Iterator>::size_hint
    "_ZN76_$LT$std..sys..imp..args..Args$u20$as$u20$core..iter..iterator..Iterator$GT$9size_hint17hd1d9d62aeb39ee42E" @ 2215
;   <std::sys_common::backtrace::PrintFormat as core::fmt::Debug>::fmt
    "_ZN76_$LT$std..sys_common..backtrace..PrintFormat$u20$as$u20$core..fmt..Debug$GT$3fmt17h506b887fedc9cb86E" @ 2216
;   <collections::string::Drain<'a> as core::fmt::Debug>::fmt
    "_ZN77_$LT$collections..string..Drain$LT$$u27$a$GT$$u20$as$u20$core..fmt..Debug$GT$3fmt17h495f20f04c72609cE" @ 2217
;   <collections::string::String as std::net::addr::ToSocketAddrs>::to_socket_addrs
    "_ZN77_$LT$collections..string..String$u20$as$u20$std..net..addr..ToSocketAddrs$GT$15to_socket_addrs17hfe2044b2ee649d5cE" @ 2218
;   <core::any::Any + 'static as core::fmt::Debug>::fmt
    "_ZN77_$LT$core..any..Any$u20$$u2b$$u20$$u27$static$u20$as$u20$core..fmt..Debug$GT$3fmt17h32a0f802607501bbE" @ 2219
;   <core::num::flt2dec::decoder::FullDecoded as core::fmt::Debug>::fmt
    "_ZN77_$LT$core..num..flt2dec..decoder..FullDecoded$u20$as$u20$core..fmt..Debug$GT$3fmt17h63fe65f2285f994dE" @ 2220
;   <rand::reseeding::ReseedWithDefault as core::default::Default>::default
    "_ZN77_$LT$rand..reseeding..ReseedWithDefault$u20$as$u20$core..default..Default$GT$7default17ha351872cddee2e98E" @ 2221
;   <std::collections::hash::map::RandomState as core::fmt::Debug>::fmt
    "_ZN77_$LT$std..collections..hash..map..RandomState$u20$as$u20$core..fmt..Debug$GT$3fmt17h1ab107c1dd438351E" @ 2222
;   <std::ffi::c_str::FromBytesWithNulError as core::fmt::Display>::fmt
    "_ZN77_$LT$std..ffi..c_str..FromBytesWithNulError$u20$as$u20$core..fmt..Display$GT$3fmt17hd99d6e86a1d8a103E" @ 2223
;   <std::ffi::os_str::OsStr as std::sys::imp::ext::ffi::OsStrExt>::encode_wide
    "_ZN77_$LT$std..ffi..os_str..OsStr$u20$as$u20$std..sys..imp..ext..ffi..OsStrExt$GT$11encode_wide17h28fd39e23f26e272E" @ 2224
;   <std::io::stdio::StderrLock<'a> as core::fmt::Debug>::fmt
    "_ZN77_$LT$std..io..stdio..StderrLock$LT$$u27$a$GT$$u20$as$u20$core..fmt..Debug$GT$3fmt17hf14d63315d77a1e2E" @ 2225
;   <std::io::stdio::StdoutLock<'a> as core::fmt::Debug>::fmt
    "_ZN77_$LT$std..io..stdio..StdoutLock$LT$$u27$a$GT$$u20$as$u20$core..fmt..Debug$GT$3fmt17h517d2d01d17a291dE" @ 2226
;   <std::path::Components<'a> as core::cmp::PartialOrd>::partial_cmp
    "_ZN77_$LT$std..path..Components$LT$$u27$a$GT$$u20$as$u20$core..cmp..PartialOrd$GT$11partial_cmp17hfa6c3df551618989E" @ 2227
;   <std::path::PrefixComponent<'a> as core::fmt::Debug>::fmt
    "_ZN77_$LT$std..path..PrefixComponent$LT$$u27$a$GT$$u20$as$u20$core..fmt..Debug$GT$3fmt17h800230148de3f422E" @ 2228
;   <std::sync::mpsc::oneshot::Packet<T> as core::ops::Drop>::drop::_FILE_LINE
    "_ZN77_$LT$std..sync..mpsc..oneshot..Packet$LT$T$GT$$u20$as$u20$core..ops..Drop$GT$4drop10_FILE_LINE17hfa5f42b612845f64E" @ 2229 DATA
;   <std::sync::mpsc::oneshot::Packet<T> as core::ops::Drop>::drop::__STATIC_FMTSTR
    "_ZN77_$LT$std..sync..mpsc..oneshot..Packet$LT$T$GT$$u20$as$u20$core..ops..Drop$GT$4drop15__STATIC_FMTSTR17h944fbe0e6f920eceE" @ 2230 DATA
;   <std::sys::imp::fs::ReadDir as core::iter::iterator::Iterator>::next
    "_ZN77_$LT$std..sys..imp..fs..ReadDir$u20$as$u20$core..iter..iterator..Iterator$GT$4next17hc8b377a6d237feb0E" @ 2231
;   <std::ffi::os_str::OsString as core::cmp::PartialEq<str>>::eq
    "_ZN78_$LT$std..ffi..os_str..OsString$u20$as$u20$core..cmp..PartialEq$LT$str$GT$$GT$2eq17hd95c5efe034cd576E" @ 2232
;   <std::net::addr::SocketAddrV4 as std::net::addr::ToSocketAddrs>::to_socket_addrs
    "_ZN78_$LT$std..net..addr..SocketAddrV4$u20$as$u20$std..net..addr..ToSocketAddrs$GT$15to_socket_addrs17he9645356fbb38fc7E" @ 2233
;   <std::net::addr::SocketAddrV6 as std::net::addr::ToSocketAddrs>::to_socket_addrs
    "_ZN78_$LT$std..net..addr..SocketAddrV6$u20$as$u20$std..net..addr..ToSocketAddrs$GT$15to_socket_addrs17h36fc03346d117129E" @ 2234
;   <std::sys::imp::backtrace::BacktraceContext as core::ops::Drop>::drop
    "_ZN78_$LT$std..sys..imp..backtrace..BacktraceContext$u20$as$u20$core..ops..Drop$GT$4drop17h5e7cd4358edc3f02E" @ 2235
;   <std::sys::imp::dynamic_lib::DynamicLibrary as core::ops::Drop>::drop
    "_ZN78_$LT$std..sys..imp..dynamic_lib..DynamicLibrary$u20$as$u20$core..ops..Drop$GT$4drop17h2c423e423f8df179E" @ 2236
;   <&'a std::ffi::c_str::CStr as core::default::Default>::default
    "_ZN79_$LT$$RF$$u27$a$u20$std..ffi..c_str..CStr$u20$as$u20$core..default..Default$GT$7default17h5b2eadd7c87cca25E" @ 2237
;   <collections::btree::map::OccupiedEntry<'a, K, V>>::remove_kv::_MSG_FILE_LINE
    "_ZN79_$LT$collections..btree..map..OccupiedEntry$LT$$u27$a$C$$u20$K$C$$u20$V$GT$$GT$9remove_kv14_MSG_FILE_LINE17h1b0c10f426f0c456E" @ 2238 DATA
;   <std::collections::hash::map::DefaultHasher as core::fmt::Debug>::fmt
    "_ZN79_$LT$std..collections..hash..map..DefaultHasher$u20$as$u20$core..fmt..Debug$GT$3fmt17h49c9bda15f488bc0E" @ 2239
;   <std::ffi::c_str::FromBytesWithNulErrorKind as core::fmt::Debug>::fmt
    "_ZN79_$LT$std..ffi..c_str..FromBytesWithNulErrorKind$u20$as$u20$core..fmt..Debug$GT$3fmt17h316f7e147acfc5c7E" @ 2240
;   <std::fs::OpenOptions as std::sys::imp::ext::fs::OpenOptionsExt>::attributes
    "_ZN79_$LT$std..fs..OpenOptions$u20$as$u20$std..sys..imp..ext..fs..OpenOptionsExt$GT$10attributes17h96e6e05c258c6921E" @ 2241
;   <std::fs::OpenOptions as std::sys::imp::ext::fs::OpenOptionsExt>::share_mode
    "_ZN79_$LT$std..fs..OpenOptions$u20$as$u20$std..sys..imp..ext..fs..OpenOptionsExt$GT$10share_mode17h80efd4d1a02ff007E" @ 2242
;   <std::fs::OpenOptions as std::sys::imp::ext::fs::OpenOptionsExt>::access_mode
    "_ZN79_$LT$std..fs..OpenOptions$u20$as$u20$std..sys..imp..ext..fs..OpenOptionsExt$GT$11access_mode17h24c2c0f579540ba2E" @ 2243
;   <std::fs::OpenOptions as std::sys::imp::ext::fs::OpenOptionsExt>::custom_flags
    "_ZN79_$LT$std..fs..OpenOptions$u20$as$u20$std..sys..imp..ext..fs..OpenOptionsExt$GT$12custom_flags17h654e3f4344757eb8E" @ 2244
;   <std::fs::OpenOptions as std::sys::imp::ext::fs::OpenOptionsExt>::security_qos_flags
    "_ZN79_$LT$std..fs..OpenOptions$u20$as$u20$std..sys..imp..ext..fs..OpenOptionsExt$GT$18security_qos_flags17hd57a3c745d70bae3E" @ 2245
;   <std::path::Path as core::convert::AsRef<std::path::Path>>::as_ref
    "_ZN79_$LT$std..path..Path$u20$as$u20$core..convert..AsRef$LT$std..path..Path$GT$$GT$6as_ref17he651ab67bfeb86b0E" @ 2246
;   rsbegin::eh_frames::ms_init::P_INIT
    _ZN7rsbegin9eh_frames7ms_init6P_INIT17ha99f03c5966082c5E @ 2247 DATA
;   rsbegin::eh_frames::ms_init::P_UNINIT
    _ZN7rsbegin9eh_frames7ms_init8P_UNINIT17h006b26f5d15a2cdcE @ 2248 DATA
;   <collections::str::EncodeUtf16<'a> as core::fmt::Debug>::fmt
    "_ZN80_$LT$collections..str..EncodeUtf16$LT$$u27$a$GT$$u20$as$u20$core..fmt..Debug$GT$3fmt17hcb6eb7efe2d53522E" @ 2249
;   <rand::distributions::normal::StandardNormal as core::fmt::Debug>::fmt
    "_ZN80_$LT$rand..distributions..normal..StandardNormal$u20$as$u20$core..fmt..Debug$GT$3fmt17h302c6f0ac42326c3E" @ 2250
;   <std::net::tcp::TcpStream as std::sys::imp::ext::io::AsRawSocket>::as_raw_socket
    "_ZN80_$LT$std..net..tcp..TcpStream$u20$as$u20$std..sys..imp..ext..io..AsRawSocket$GT$13as_raw_socket17h05829716d28a786dE" @ 2251
;   <std::net::udp::UdpSocket as std::sys::imp::ext::io::AsRawSocket>::as_raw_socket
    "_ZN80_$LT$std..net..udp..UdpSocket$u20$as$u20$std..sys..imp..ext..io..AsRawSocket$GT$13as_raw_socket17hd3c53ee12124c26fE" @ 2252
;   <std::path::Iter<'a> as core::iter::iterator::Iterator>::next
    "_ZN80_$LT$std..path..Iter$LT$$u27$a$GT$$u20$as$u20$core..iter..iterator..Iterator$GT$4next17h39dd120ebf5bf7c5E" @ 2253
;   <std::sys::imp::pipe::AsyncPipe<'a> as core::ops::Drop>::drop
    "_ZN80_$LT$std..sys..imp..pipe..AsyncPipe$LT$$u27$a$GT$$u20$as$u20$core..ops..Drop$GT$4drop17hb1cb32f37e94b201E" @ 2254
;   <&'a std::sys::imp::handle::RawHandle as std::io::Read>::read_to_end
    "_ZN81_$LT$$RF$$u27$a$u20$std..sys..imp..handle..RawHandle$u20$as$u20$std..io..Read$GT$11read_to_end17h5671c8e5035ef089E" @ 2255
;   <&'a std::sys::imp::handle::RawHandle as std::io::Read>::read
    "_ZN81_$LT$$RF$$u27$a$u20$std..sys..imp..handle..RawHandle$u20$as$u20$std..io..Read$GT$4read17h7250eb226da66f04E" @ 2256
;   <std::path::PrefixComponent<'a> as core::cmp::PartialEq>::eq
    "_ZN81_$LT$std..path..PrefixComponent$LT$$u27$a$GT$$u20$as$u20$core..cmp..PartialEq$GT$2eq17h6818d7c6803f8962E" @ 2257
;   <std::process::Command as std::sys::imp::ext::process::CommandExt>::creation_flags
    "_ZN81_$LT$std..process..Command$u20$as$u20$std..sys..imp..ext..process..CommandExt$GT$14creation_flags17he11fb418ae63513eE" @ 2258
;   <std::time::duration::Duration as core::ops::DivAssign<u32>>::div_assign
    "_ZN81_$LT$std..time..duration..Duration$u20$as$u20$core..ops..DivAssign$LT$u32$GT$$GT$10div_assign17h690510679117e647E" @ 2259
;   <std::time::duration::Duration as core::ops::MulAssign<u32>>::mul_assign
    "_ZN81_$LT$std..time..duration..Duration$u20$as$u20$core..ops..MulAssign$LT$u32$GT$$GT$10mul_assign17h868d4829a795173fE" @ 2260
;   <std_unicode::char::ToLowercase as core::iter::iterator::Iterator>::next
    "_ZN81_$LT$std_unicode..char..ToLowercase$u20$as$u20$core..iter..iterator..Iterator$GT$4next17hfbd7e7f34c08510aE" @ 2261
;   <std_unicode::char::ToUppercase as core::iter::iterator::Iterator>::next
    "_ZN81_$LT$std_unicode..char..ToUppercase$u20$as$u20$core..iter..iterator..Iterator$GT$4next17h2493723a16654733E" @ 2262
;   <collections::vec_deque::VecDeque<A> as core::cmp::PartialEq>::eq::_FILE_LINE
    "_ZN82_$LT$collections..vec_deque..VecDeque$LT$A$GT$$u20$as$u20$core..cmp..PartialEq$GT$2eq10_FILE_LINE17h0d70f69d20c94a0cE" @ 2263 DATA
;   <collections::vec_deque::VecDeque<A> as core::cmp::PartialEq>::eq::_FILE_LINE
    "_ZN82_$LT$collections..vec_deque..VecDeque$LT$A$GT$$u20$as$u20$core..cmp..PartialEq$GT$2eq10_FILE_LINE17h1423db70126ac687E" @ 2264 DATA
;   <collections::vec_deque::VecDeque<A> as core::cmp::PartialEq>::eq::_FILE_LINE
    "_ZN82_$LT$collections..vec_deque..VecDeque$LT$A$GT$$u20$as$u20$core..cmp..PartialEq$GT$2eq10_FILE_LINE17h2915266dc6359b86E" @ 2265 DATA
;   <collections::vec_deque::VecDeque<A> as core::cmp::PartialEq>::eq::_FILE_LINE
    "_ZN82_$LT$collections..vec_deque..VecDeque$LT$A$GT$$u20$as$u20$core..cmp..PartialEq$GT$2eq10_FILE_LINE17h4b6d92ec80fd2c0cE" @ 2266 DATA
;   <collections::vec_deque::VecDeque<A> as core::cmp::PartialEq>::eq::_FILE_LINE
    "_ZN82_$LT$collections..vec_deque..VecDeque$LT$A$GT$$u20$as$u20$core..cmp..PartialEq$GT$2eq10_FILE_LINE17h711b88e8fc2e557cE" @ 2267 DATA
;   <collections::vec_deque::VecDeque<A> as core::cmp::PartialEq>::eq::_FILE_LINE
    "_ZN82_$LT$collections..vec_deque..VecDeque$LT$A$GT$$u20$as$u20$core..cmp..PartialEq$GT$2eq10_FILE_LINE17hf2f33dc35409dff2E" @ 2268 DATA
;   <collections::vec_deque::VecDeque<A> as core::cmp::PartialEq>::eq::__STATIC_FMTSTR
    "_ZN82_$LT$collections..vec_deque..VecDeque$LT$A$GT$$u20$as$u20$core..cmp..PartialEq$GT$2eq15__STATIC_FMTSTR17h0a55572389e810c8E" @ 2269 DATA
;   <collections::vec_deque::VecDeque<A> as core::cmp::PartialEq>::eq::__STATIC_FMTSTR
    "_ZN82_$LT$collections..vec_deque..VecDeque$LT$A$GT$$u20$as$u20$core..cmp..PartialEq$GT$2eq15__STATIC_FMTSTR17h1925f91c9138a55dE" @ 2270 DATA
;   <collections::vec_deque::VecDeque<A> as core::cmp::PartialEq>::eq::__STATIC_FMTSTR
    "_ZN82_$LT$collections..vec_deque..VecDeque$LT$A$GT$$u20$as$u20$core..cmp..PartialEq$GT$2eq15__STATIC_FMTSTR17h62e9d7ecdfc61939E" @ 2271 DATA
;   <collections::vec_deque::VecDeque<A> as core::cmp::PartialEq>::eq::__STATIC_FMTSTR
    "_ZN82_$LT$collections..vec_deque..VecDeque$LT$A$GT$$u20$as$u20$core..cmp..PartialEq$GT$2eq15__STATIC_FMTSTR17h9f127acda1342141E" @ 2272 DATA
;   <collections::vec_deque::VecDeque<A> as core::cmp::PartialEq>::eq::__STATIC_FMTSTR
    "_ZN82_$LT$collections..vec_deque..VecDeque$LT$A$GT$$u20$as$u20$core..cmp..PartialEq$GT$2eq15__STATIC_FMTSTR17hd399eabb63be3522E" @ 2273 DATA
;   <collections::vec_deque::VecDeque<A> as core::cmp::PartialEq>::eq::__STATIC_FMTSTR
    "_ZN82_$LT$collections..vec_deque..VecDeque$LT$A$GT$$u20$as$u20$core..cmp..PartialEq$GT$2eq15__STATIC_FMTSTR17hd5a2163da7e54c65E" @ 2274 DATA
;   <std::io::append_to_string::Guard<'a> as core::ops::Drop>::drop
    "_ZN82_$LT$std..io..append_to_string..Guard$LT$$u27$a$GT$$u20$as$u20$core..ops..Drop$GT$4drop17h6bc4522682e54360E" @ 2275
;   <std::net::tcp::TcpListener as std::sys::imp::ext::io::AsRawSocket>::as_raw_socket
    "_ZN82_$LT$std..net..tcp..TcpListener$u20$as$u20$std..sys..imp..ext..io..AsRawSocket$GT$13as_raw_socket17h598eedb293785cceE" @ 2276
;   <std::net::tcp::TcpStream as std::sys::imp::ext::io::FromRawSocket>::from_raw_socket
    "_ZN82_$LT$std..net..tcp..TcpStream$u20$as$u20$std..sys..imp..ext..io..FromRawSocket$GT$15from_raw_socket17h466a0e695862489aE" @ 2277
;   <std::net::tcp::TcpStream as std::sys::imp::ext::io::IntoRawSocket>::into_raw_socket
    "_ZN82_$LT$std..net..tcp..TcpStream$u20$as$u20$std..sys..imp..ext..io..IntoRawSocket$GT$15into_raw_socket17h91b14b019ca74d15E" @ 2278
;   <std::net::udp::UdpSocket as std::sys::imp::ext::io::FromRawSocket>::from_raw_socket
    "_ZN82_$LT$std..net..udp..UdpSocket$u20$as$u20$std..sys..imp..ext..io..FromRawSocket$GT$15from_raw_socket17hf71b4887fb6abdb3E" @ 2279
;   <std::net::udp::UdpSocket as std::sys::imp::ext::io::IntoRawSocket>::into_raw_socket
    "_ZN82_$LT$std..net..udp..UdpSocket$u20$as$u20$std..sys..imp..ext..io..IntoRawSocket$GT$15into_raw_socket17hbb6388f9d6b3d37eE" @ 2280
;   <std::path::PathBuf as core::borrow::Borrow<std::path::Path>>::borrow
    "_ZN82_$LT$std..path..PathBuf$u20$as$u20$core..borrow..Borrow$LT$std..path..Path$GT$$GT$6borrow17hb733d3f3be9a7316E" @ 2281
;   <std::path::PathBuf as core::convert::AsRef<std::path::Path>>::as_ref
    "_ZN82_$LT$std..path..PathBuf$u20$as$u20$core..convert..AsRef$LT$std..path..Path$GT$$GT$6as_ref17h3b7a043f4a0875e1E" @ 2282
;   <std::path::PrefixComponent<'a> as core::cmp::PartialOrd>::partial_cmp
    "_ZN82_$LT$std..path..PrefixComponent$LT$$u27$a$GT$$u20$as$u20$core..cmp..PartialOrd$GT$11partial_cmp17hf87951192f54fee0E" @ 2283
;   <std::sys::imp::net::Socket as std::sys_common::AsInner<u32>>::as_inner
    "_ZN82_$LT$std..sys..imp..net..Socket$u20$as$u20$std..sys_common..AsInner$LT$u32$GT$$GT$8as_inner17h915cba41e08ac804E" @ 2284
;   <&'a std::path::Path as core::iter::traits::IntoIterator>::into_iter
    "_ZN83_$LT$$RF$$u27$a$u20$std..path..Path$u20$as$u20$core..iter..traits..IntoIterator$GT$9into_iter17hd9b81dd62d7f5370E" @ 2285
;   <collections::vec::Splice<'a, I> as core::ops::Drop>::drop::_FILE_LINE
    "_ZN83_$LT$collections..vec..Splice$LT$$u27$a$C$$u20$I$GT$$u20$as$u20$core..ops..Drop$GT$4drop10_FILE_LINE17h1d982d7605bfdb4bE" @ 2286 DATA
;   <collections::vec::Splice<'a, I> as core::ops::Drop>::drop::_MSG_FILE_LINE
    "_ZN83_$LT$collections..vec..Splice$LT$$u27$a$C$$u20$I$GT$$u20$as$u20$core..ops..Drop$GT$4drop14_MSG_FILE_LINE17hbc24d995f55dfc82E" @ 2287 DATA
;   <collections::vec::Splice<'a, I> as core::ops::Drop>::drop::__STATIC_FMTSTR
    "_ZN83_$LT$collections..vec..Splice$LT$$u27$a$C$$u20$I$GT$$u20$as$u20$core..ops..Drop$GT$4drop15__STATIC_FMTSTR17ha0c2c29d00349a92E" @ 2288 DATA
;   <core::char::EscapeDefault as core::iter::traits::ExactSizeIterator>::len
    "_ZN83_$LT$core..char..EscapeDefault$u20$as$u20$core..iter..traits..ExactSizeIterator$GT$3len17hef43eca0c6670fecE" @ 2289
;   <core::str::pattern::CharSearcher<'a> as core::fmt::Debug>::fmt
    "_ZN83_$LT$core..str..pattern..CharSearcher$LT$$u27$a$GT$$u20$as$u20$core..fmt..Debug$GT$3fmt17hea0f186924660150E" @ 2290
;   <std::ffi::os_str::OsString as std::sys::imp::ext::ffi::OsStringExt>::from_wide
    "_ZN83_$LT$std..ffi..os_str..OsString$u20$as$u20$std..sys..imp..ext..ffi..OsStringExt$GT$9from_wide17h9727e203157f8976E" @ 2291
;   <std::sync::mpsc::select::Packets as core::iter::iterator::Iterator>::next
    "_ZN83_$LT$std..sync..mpsc..select..Packets$u20$as$u20$core..iter..iterator..Iterator$GT$4next17h2947d53d3daab8d3E" @ 2292
;   <std::sys::imp::args::Args as core::iter::traits::ExactSizeIterator>::len
    "_ZN83_$LT$std..sys..imp..args..Args$u20$as$u20$core..iter..traits..ExactSizeIterator$GT$3len17h060e3bee11369191E" @ 2293
;   <std::sys::imp::process::DropGuard<'a> as core::ops::Drop>::drop
    "_ZN83_$LT$std..sys..imp..process..DropGuard$LT$$u27$a$GT$$u20$as$u20$core..ops..Drop$GT$4drop17h9c85eaa57d34eb43E" @ 2294
;   <std::sys_common::net::LookupHost as core::iter::iterator::Iterator>::next
    "_ZN83_$LT$std..sys_common..net..LookupHost$u20$as$u20$core..iter..iterator..Iterator$GT$4next17h3b54207aaa8b86a4E" @ 2295
;   <std::net::tcp::TcpListener as std::sys::imp::ext::io::FromRawSocket>::from_raw_socket
    "_ZN84_$LT$std..net..tcp..TcpListener$u20$as$u20$std..sys..imp..ext..io..FromRawSocket$GT$15from_raw_socket17h6101fe5604501a73E" @ 2296
;   <std::net::tcp::TcpListener as std::sys::imp::ext::io::IntoRawSocket>::into_raw_socket
    "_ZN84_$LT$std..net..tcp..TcpListener$u20$as$u20$std..sys..imp..ext..io..IntoRawSocket$GT$15into_raw_socket17h30c359d47d09d024E" @ 2297
;   <std::sys::imp::net::Socket as std::sys_common::FromInner<u32>>::from_inner
    "_ZN84_$LT$std..sys..imp..net..Socket$u20$as$u20$std..sys_common..FromInner$LT$u32$GT$$GT$10from_inner17h26e3421bb8697713E" @ 2298
;   <std::sys::imp::net::Socket as std::sys_common::IntoInner<u32>>::into_inner
    "_ZN84_$LT$std..sys..imp..net..Socket$u20$as$u20$std..sys_common..IntoInner$LT$u32$GT$$GT$10into_inner17h077e40587fd98548E" @ 2299
;   <core::num::dec2flt::parse::Decimal<'a> as core::fmt::Debug>::fmt
    "_ZN85_$LT$core..num..dec2flt..parse..Decimal$LT$$u27$a$GT$$u20$as$u20$core..fmt..Debug$GT$3fmt17hb7750f227cb47163E" @ 2300
;   <std::ascii::EscapeDefault as core::iter::traits::DoubleEndedIterator>::next_back
    "_ZN85_$LT$std..ascii..EscapeDefault$u20$as$u20$core..iter..traits..DoubleEndedIterator$GT$9next_back17hdd00dcc31268f9cbE" @ 2301
;   <std::collections::hash::map::DefaultHasher as core::default::Default>::default
    "_ZN85_$LT$std..collections..hash..map..DefaultHasher$u20$as$u20$core..default..Default$GT$7default17hde28ea64a909f321E" @ 2302
;   <std::env::SplitPaths<'a> as core::iter::iterator::Iterator>::next
    "_ZN85_$LT$std..env..SplitPaths$LT$$u27$a$GT$$u20$as$u20$core..iter..iterator..Iterator$GT$4next17h2e2e23a33de93a5dE" @ 2303
;   <std::env::SplitPaths<'a> as core::iter::iterator::Iterator>::size_hint
    "_ZN85_$LT$std..env..SplitPaths$LT$$u27$a$GT$$u20$as$u20$core..iter..iterator..Iterator$GT$9size_hint17h54883dd25ccf5d02E" @ 2304
;   <std::sys::imp::args::Args as core::iter::traits::DoubleEndedIterator>::next_back
    "_ZN85_$LT$std..sys..imp..args..Args$u20$as$u20$core..iter..traits..DoubleEndedIterator$GT$9next_back17hce53ded6e3e28f87E" @ 2305
;   <std::sys::imp::process::ExitStatus as core::convert::From<u32>>::from
    "_ZN85_$LT$std..sys..imp..process..ExitStatus$u20$as$u20$core..convert..From$LT$u32$GT$$GT$4from17hdc5dda1c6afc564cE" @ 2306
;   <std_unicode::char::CaseMappingIter as core::iter::iterator::Iterator>::next
    "_ZN85_$LT$std_unicode..char..CaseMappingIter$u20$as$u20$core..iter..iterator..Iterator$GT$4next17hfc13b3e178cbcf63E" @ 2307
;   <&'a std::path::PathBuf as core::iter::traits::IntoIterator>::into_iter
    "_ZN86_$LT$$RF$$u27$a$u20$std..path..PathBuf$u20$as$u20$core..iter..traits..IntoIterator$GT$9into_iter17hd017939bd94e2f5aE" @ 2308
;   <std::path::Components<'a> as core::iter::iterator::Iterator>::next
    "_ZN86_$LT$std..path..Components$LT$$u27$a$GT$$u20$as$u20$core..iter..iterator..Iterator$GT$4next17hbf95ecf583c2d7bcE" @ 2309
;   <std::sys_common::remutex::ReentrantMutex<T> as core::fmt::Debug>::fmt::__STATIC_FMTSTR
    "_ZN86_$LT$std..sys_common..remutex..ReentrantMutex$LT$T$GT$$u20$as$u20$core..fmt..Debug$GT$3fmt15__STATIC_FMTSTR17h058681a2e64bb3f9E" @ 2310 DATA
;   <std::sys_common::remutex::ReentrantMutex<T> as core::fmt::Debug>::fmt::__STATIC_FMTSTR
    "_ZN86_$LT$std..sys_common..remutex..ReentrantMutex$LT$T$GT$$u20$as$u20$core..fmt..Debug$GT$3fmt15__STATIC_FMTSTR17ha33327498957965eE" @ 2311 DATA
;   <std::sys_common::remutex::ReentrantMutex<T> as core::fmt::Debug>::fmt::__STATIC_FMTSTR
    "_ZN86_$LT$std..sys_common..remutex..ReentrantMutex$LT$T$GT$$u20$as$u20$core..fmt..Debug$GT$3fmt15__STATIC_FMTSTR17haef13be95220146bE" @ 2312 DATA
;   <(&'a str, u16) as std::net::addr::ToSocketAddrs>::to_socket_addrs
    "_ZN87_$LT$$LP$$RF$$u27$a$u20$str$C$$u20$u16$RP$$u20$as$u20$std..net..addr..ToSocketAddrs$GT$15to_socket_addrs17ha73fd6091fd39e72E" @ 2313
;   <rand::XorShiftRng as rand::SeedableRng<[u32; 4]>>::reseed
    "_ZN87_$LT$rand..XorShiftRng$u20$as$u20$rand..SeedableRng$LT$$u5b$u32$u3b$$u20$4$u5d$$GT$$GT$6reseed17h997c39f45a2fde45E" @ 2314
;   <rand::XorShiftRng as rand::SeedableRng<[u32; 4]>>::from_seed
    "_ZN87_$LT$rand..XorShiftRng$u20$as$u20$rand..SeedableRng$LT$$u5b$u32$u3b$$u20$4$u5d$$GT$$GT$9from_seed17hc861009bfd862704E" @ 2315
;   <std::path::Path as core::convert::AsRef<std::ffi::os_str::OsStr>>::as_ref
    "_ZN87_$LT$std..path..Path$u20$as$u20$core..convert..AsRef$LT$std..ffi..os_str..OsStr$GT$$GT$6as_ref17h4e82f4a4627abc1bE" @ 2316
;   <std::process::ExitStatus as std::sys::imp::ext::process::ExitStatusExt>::from_raw
    "_ZN87_$LT$std..process..ExitStatus$u20$as$u20$std..sys..imp..ext..process..ExitStatusExt$GT$8from_raw17h7e340730e68612beE" @ 2317
;   <std::net::tcp::Incoming<'a> as core::iter::iterator::Iterator>::next
    "_ZN88_$LT$std..net..tcp..Incoming$LT$$u27$a$GT$$u20$as$u20$core..iter..iterator..Iterator$GT$4next17h3f4799870e054c86E" @ 2318
;   <(std::net::ip::IpAddr, u16) as std::net::addr::ToSocketAddrs>::to_socket_addrs
    "_ZN89_$LT$$LP$std..net..ip..IpAddr$C$$u20$u16$RP$$u20$as$u20$std..net..addr..ToSocketAddrs$GT$15to_socket_addrs17h45fde50539de47fcE" @ 2319
;   <core::num::dec2flt::parse::ParseResult<'a> as core::fmt::Debug>::fmt
    "_ZN89_$LT$core..num..dec2flt..parse..ParseResult$LT$$u27$a$GT$$u20$as$u20$core..fmt..Debug$GT$3fmt17hf8194dc5f3b233e8E" @ 2320
;   <std::fs::File as std::sys_common::AsInner<std::sys::imp::fs::File>>::as_inner
    "_ZN89_$LT$std..fs..File$u20$as$u20$std..sys_common..AsInner$LT$std..sys..imp..fs..File$GT$$GT$8as_inner17hee0f3ffdc8dc9498E" @ 2321
;   <std::path::Iter<'a> as core::iter::traits::DoubleEndedIterator>::next_back
    "_ZN89_$LT$std..path..Iter$LT$$u27$a$GT$$u20$as$u20$core..iter..traits..DoubleEndedIterator$GT$9next_back17haf44f1fe681cf7e1E" @ 2322
;   <collections::borrow::Cow<'a, str> as core::ops::AddAssign>::add_assign
    "_ZN90_$LT$collections..borrow..Cow$LT$$u27$a$C$$u20$str$GT$$u20$as$u20$core..ops..AddAssign$GT$10add_assign17h7daba043def3c165E" @ 2323
;   <collections::btree::map::BTreeMap<K, V> as core::clone::Clone>::clone::clone_subtree::_MSG_FILE_LINE
    "_ZN90_$LT$collections..btree..map..BTreeMap$LT$K$C$$u20$V$GT$$u20$as$u20$core..clone..Clone$GT$5clone13clone_subtree14_MSG_FILE_LINE17hc755d419e52f60acE" @ 2324 DATA
;   <collections::btree::node::NodeRef<BorrowType, K, V, Type>>::last_kv::_MSG_FILE_LINE
    "_ZN90_$LT$collections..btree..node..NodeRef$LT$BorrowType$C$$u20$K$C$$u20$V$C$$u20$Type$GT$$GT$7last_kv14_MSG_FILE_LINE17h7502615687d2751eE" @ 2325 DATA
;   <collections::btree::node::NodeRef<BorrowType, K, V, Type>>::first_kv::_MSG_FILE_LINE
    "_ZN90_$LT$collections..btree..node..NodeRef$LT$BorrowType$C$$u20$K$C$$u20$V$C$$u20$Type$GT$$GT$8first_kv14_MSG_FILE_LINE17h25c375eec5fdfa8fE" @ 2326 DATA
;   <std::net::ip::IpAddr as core::convert::From<std::net::ip::Ipv4Addr>>::from
    "_ZN90_$LT$std..net..ip..IpAddr$u20$as$u20$core..convert..From$LT$std..net..ip..Ipv4Addr$GT$$GT$4from17h2306cafbfd4e966dE" @ 2327
;   <std::net::ip::IpAddr as core::convert::From<std::net::ip::Ipv6Addr>>::from
    "_ZN90_$LT$std..net..ip..IpAddr$u20$as$u20$core..convert..From$LT$std..net..ip..Ipv6Addr$GT$$GT$4from17h840bb697303b5f5bE" @ 2328
;   <std::path::PathBuf as core::convert::AsRef<std::ffi::os_str::OsStr>>::as_ref
    "_ZN90_$LT$std..path..PathBuf$u20$as$u20$core..convert..AsRef$LT$std..ffi..os_str..OsStr$GT$$GT$6as_ref17h56c4057fbd069b4aE" @ 2329
;   <std::time::Instant as core::ops::Add<std::time::duration::Duration>>::add
    "_ZN90_$LT$std..time..Instant$u20$as$u20$core..ops..Add$LT$std..time..duration..Duration$GT$$GT$3add17h6cbfd37cfd7da33bE" @ 2330
;   <std::time::Instant as core::ops::Sub<std::time::duration::Duration>>::sub
    "_ZN90_$LT$std..time..Instant$u20$as$u20$core..ops..Sub$LT$std..time..duration..Duration$GT$$GT$3sub17h23987f8320a4de95E" @ 2331
;   <(std::net::ip::Ipv4Addr, u16) as std::net::addr::ToSocketAddrs>::to_socket_addrs
    "_ZN91_$LT$$LP$std..net..ip..Ipv4Addr$C$$u20$u16$RP$$u20$as$u20$std..net..addr..ToSocketAddrs$GT$15to_socket_addrs17h71134942be98ae69E" @ 2332
;   <(std::net::ip::Ipv6Addr, u16) as std::net::addr::ToSocketAddrs>::to_socket_addrs
    "_ZN91_$LT$$LP$std..net..ip..Ipv6Addr$C$$u20$u16$RP$$u20$as$u20$std..net..addr..ToSocketAddrs$GT$15to_socket_addrs17he7b7b89662dfd466E" @ 2333
;   <collections::string::Drain<'a> as core::iter::iterator::Iterator>::size_hint
    "_ZN91_$LT$collections..string..Drain$LT$$u27$a$GT$$u20$as$u20$core..iter..iterator..Iterator$GT$9size_hint17hc305fc9f47a036a1E" @ 2334
;   <collections::string::Splice<'a, 'b> as core::ops::Drop>::drop
    "_ZN91_$LT$collections..string..Splice$LT$$u27$a$C$$u20$$u27$b$GT$$u20$as$u20$core..ops..Drop$GT$4drop17hb23e3a76ae996506E" @ 2335
;   <core::iter::Zip<A, B> as core::iter::ZipImpl<A, B>>::next_back::_MSG_FILE_LINE
    "_ZN91_$LT$core..iter..Zip$LT$A$C$$u20$B$GT$$u20$as$u20$core..iter..ZipImpl$LT$A$C$$u20$B$GT$$GT$9next_back14_MSG_FILE_LINE17h9d297ecff84e4bb8E" @ 2336 DATA
;   <std::ffi::c_str::CStr as core::convert::AsRef<std::ffi::c_str::CStr>>::as_ref
    "_ZN91_$LT$std..ffi..c_str..CStr$u20$as$u20$core..convert..AsRef$LT$std..ffi..c_str..CStr$GT$$GT$6as_ref17h153c2f9db76ff5c8E" @ 2337
;   <std::fs::File as std::sys_common::FromInner<std::sys::imp::fs::File>>::from_inner
    "_ZN91_$LT$std..fs..File$u20$as$u20$std..sys_common..FromInner$LT$std..sys..imp..fs..File$GT$$GT$10from_inner17hee3c4f4faea07b60E" @ 2338
;   <std::fs::File as std::sys_common::IntoInner<std::sys::imp::fs::File>>::into_inner
    "_ZN91_$LT$std..fs..File$u20$as$u20$std..sys_common..IntoInner$LT$std..sys..imp..fs..File$GT$$GT$10into_inner17h3c2a06870ab8f102E" @ 2339
;   <std::net::ip::IpAddr as core::cmp::PartialEq<std::net::ip::Ipv4Addr>>::eq
    "_ZN91_$LT$std..net..ip..IpAddr$u20$as$u20$core..cmp..PartialEq$LT$std..net..ip..Ipv4Addr$GT$$GT$2eq17h36e8f372cdd2d010E" @ 2340
;   <std::net::ip::IpAddr as core::cmp::PartialEq<std::net::ip::Ipv6Addr>>::eq
    "_ZN91_$LT$std..net..ip..IpAddr$u20$as$u20$core..cmp..PartialEq$LT$std..net..ip..Ipv6Addr$GT$$GT$2eq17h001cb73162a9e626E" @ 2341
;   <std::net::ip::IpAddr as core::convert::From<[u8; 4]>>::from
    "_ZN91_$LT$std..net..ip..IpAddr$u20$as$u20$core..convert..From$LT$$u5b$u8$u3b$$u20$4$u5d$$GT$$GT$4from17h8d31b4d4387c7009E" @ 2342
;   <std::net::ip::Ipv4Addr as core::cmp::PartialEq<std::net::ip::IpAddr>>::eq
    "_ZN91_$LT$std..net..ip..Ipv4Addr$u20$as$u20$core..cmp..PartialEq$LT$std..net..ip..IpAddr$GT$$GT$2eq17h99485beb56e4983dE" @ 2343
;   <std::net::ip::Ipv6Addr as core::cmp::PartialEq<std::net::ip::IpAddr>>::eq
    "_ZN91_$LT$std..net..ip..Ipv6Addr$u20$as$u20$core..cmp..PartialEq$LT$std..net..ip..IpAddr$GT$$GT$2eq17h7a8987a089006bc3E" @ 2344
;   <collections::string::Splice<'a, 'b> as core::fmt::Debug>::fmt
    "_ZN92_$LT$collections..string..Splice$LT$$u27$a$C$$u20$$u27$b$GT$$u20$as$u20$core..fmt..Debug$GT$3fmt17h7621a94623bac55dE" @ 2345
;   <std::net::ip::IpAddr as core::cmp::PartialOrd<std::net::ip::Ipv4Addr>>::partial_cmp
    "_ZN92_$LT$std..net..ip..IpAddr$u20$as$u20$core..cmp..PartialOrd$LT$std..net..ip..Ipv4Addr$GT$$GT$11partial_cmp17h487f8f1a9defe630E" @ 2346
;   <std::net::ip::IpAddr as core::cmp::PartialOrd<std::net::ip::Ipv6Addr>>::partial_cmp
    "_ZN92_$LT$std..net..ip..IpAddr$u20$as$u20$core..cmp..PartialOrd$LT$std..net..ip..Ipv6Addr$GT$$GT$11partial_cmp17hdc5b5a26b4ec52e2E" @ 2347
;   <std::net::ip::IpAddr as core::convert::From<[u16; 8]>>::from
    "_ZN92_$LT$std..net..ip..IpAddr$u20$as$u20$core..convert..From$LT$$u5b$u16$u3b$$u20$8$u5d$$GT$$GT$4from17hedea42f89c8d2f1bE" @ 2348
;   <std::net::ip::IpAddr as core::convert::From<[u8; 16]>>::from
    "_ZN92_$LT$std..net..ip..IpAddr$u20$as$u20$core..convert..From$LT$$u5b$u8$u3b$$u20$16$u5d$$GT$$GT$4from17h0956c8a6069a48b8E" @ 2349
;   <std::net::ip::Ipv4Addr as core::cmp::PartialOrd<std::net::ip::IpAddr>>::partial_cmp
    "_ZN92_$LT$std..net..ip..Ipv4Addr$u20$as$u20$core..cmp..PartialOrd$LT$std..net..ip..IpAddr$GT$$GT$11partial_cmp17hd6bc430f464b5534E" @ 2350
;   <std::net::ip::Ipv6Addr as core::cmp::PartialOrd<std::net::ip::IpAddr>>::partial_cmp
    "_ZN92_$LT$std..net..ip..Ipv6Addr$u20$as$u20$core..cmp..PartialOrd$LT$std..net..ip..IpAddr$GT$$GT$11partial_cmp17hec00ef94bdf9fdd9E" @ 2351
;   <std::path::PathBuf as core::convert::From<std::ffi::os_str::OsString>>::from
    "_ZN92_$LT$std..path..PathBuf$u20$as$u20$core..convert..From$LT$std..ffi..os_str..OsString$GT$$GT$4from17hccfdfae2ada8eb06E" @ 2352
;   <std::sync::mpsc::select::Handle<'rx, T> as core::fmt::Debug>::fmt::__STATIC_FMTSTR
    "_ZN92_$LT$std..sync..mpsc..select..Handle$LT$$u27$rx$C$$u20$T$GT$$u20$as$u20$core..fmt..Debug$GT$3fmt15__STATIC_FMTSTR17h326f8a699d151ca7E" @ 2353 DATA
;   <std::sys_common::wtf8::Wtf8 as std::sys_common::AsInner<[u8]>>::as_inner
    "_ZN92_$LT$std..sys_common..wtf8..Wtf8$u20$as$u20$std..sys_common..AsInner$LT$$u5b$u8$u5d$$GT$$GT$8as_inner17h4d78dfaaf3c8f3a6E" @ 2354
;   <collections::string::String as core::convert::From<&'a str>>::from
    "_ZN93_$LT$collections..string..String$u20$as$u20$core..convert..From$LT$$RF$$u27$a$u20$str$GT$$GT$4from17h1be9e9d5069d45caE" @ 2355
;   <std::collections::hash::table::RawTable<K, V> as core::ops::Drop>::drop::_FILE_LINE
    "_ZN93_$LT$std..collections..hash..table..RawTable$LT$K$C$$u20$V$GT$$u20$as$u20$core..ops..Drop$GT$4drop10_FILE_LINE17h61c8e67fc3451d29E" @ 2356 DATA
;   <std::net::ip::Ipv4Addr as core::convert::From<[u8; 4]>>::from
    "_ZN93_$LT$std..net..ip..Ipv4Addr$u20$as$u20$core..convert..From$LT$$u5b$u8$u3b$$u20$4$u5d$$GT$$GT$4from17ha5265dcfdde2b2f9E" @ 2357
;   <std::path::Iter<'a> as core::convert::AsRef<std::path::Path>>::as_ref
    "_ZN93_$LT$std..path..Iter$LT$$u27$a$GT$$u20$as$u20$core..convert..AsRef$LT$std..path..Path$GT$$GT$6as_ref17h3826b1980feb253bE" @ 2358
;   <std::path::PathBuf as core::convert::From<collections::string::String>>::from
    "_ZN93_$LT$std..path..PathBuf$u20$as$u20$core..convert..From$LT$collections..string..String$GT$$GT$4from17ha59c00dcd6dd0801E" @ 2359
;   <std::rand::StdRng as rand::SeedableRng<&'a [usize]>>::reseed
    "_ZN93_$LT$std..rand..StdRng$u20$as$u20$rand..SeedableRng$LT$$RF$$u27$a$u20$$u5b$usize$u5d$$GT$$GT$6reseed17h690094102bf0398fE" @ 2360
;   <std::rand::StdRng as rand::SeedableRng<&'a [usize]>>::from_seed
    "_ZN93_$LT$std..rand..StdRng$u20$as$u20$rand..SeedableRng$LT$$RF$$u27$a$u20$$u5b$usize$u5d$$GT$$GT$9from_seed17hd906eed75dbc9cc2E" @ 2361
;   <std::time::SystemTime as core::ops::Add<std::time::duration::Duration>>::add
    "_ZN93_$LT$std..time..SystemTime$u20$as$u20$core..ops..Add$LT$std..time..duration..Duration$GT$$GT$3add17head8b98e3cc9a30cE" @ 2362
;   <std::time::SystemTime as core::ops::Sub<std::time::duration::Duration>>::sub
    "_ZN93_$LT$std..time..SystemTime$u20$as$u20$core..ops..Sub$LT$std..time..duration..Duration$GT$$GT$3sub17h531fa5e9f8f0fda9E" @ 2363
;   <alloc::boxed::Box<str> as core::convert::From<&'a str>>::from
    "_ZN94_$LT$alloc..boxed..Box$LT$str$GT$$u20$as$u20$core..convert..From$LT$$RF$$u27$a$u20$str$GT$$GT$4from17h2128498d1846ee6fE" @ 2364
;   <std::ffi::c_str::CString as core::borrow::Borrow<std::ffi::c_str::CStr>>::borrow
    "_ZN94_$LT$std..ffi..c_str..CString$u20$as$u20$core..borrow..Borrow$LT$std..ffi..c_str..CStr$GT$$GT$6borrow17h45a76fbafadc5e5aE" @ 2365
;   <std::ffi::c_str::CString as core::convert::AsRef<std::ffi::c_str::CStr>>::as_ref
    "_ZN94_$LT$std..ffi..c_str..CString$u20$as$u20$core..convert..AsRef$LT$std..ffi..c_str..CStr$GT$$GT$6as_ref17h234ea41605abc545E" @ 2366
;   <std::io::error::Error as core::convert::From<std::io::error::ErrorKind>>::from
    "_ZN94_$LT$std..io..error..Error$u20$as$u20$core..convert..From$LT$std..io..error..ErrorKind$GT$$GT$4from17h55f8450588bb400cE" @ 2367
;   <std::net::ip::Ipv6Addr as core::convert::From<[u16; 8]>>::from
    "_ZN94_$LT$std..net..ip..Ipv6Addr$u20$as$u20$core..convert..From$LT$$u5b$u16$u3b$$u20$8$u5d$$GT$$GT$4from17h1ba9604d1da45b3aE" @ 2368
;   <std::net::ip::Ipv6Addr as core::convert::From<[u8; 16]>>::from
    "_ZN94_$LT$std..net..ip..Ipv6Addr$u20$as$u20$core..convert..From$LT$$u5b$u8$u3b$$u20$16$u5d$$GT$$GT$4from17h1f5b85c30763b090E" @ 2369
;   <std::sys::imp::os::SplitPaths<'a> as core::iter::iterator::Iterator>::next
    "_ZN94_$LT$std..sys..imp..os..SplitPaths$LT$$u27$a$GT$$u20$as$u20$core..iter..iterator..Iterator$GT$4next17h79cc7545d340aca3E" @ 2370
;   <rand::isaac::IsaacRng as rand::SeedableRng<&'a [u32]>>::reseed
    "_ZN95_$LT$rand..isaac..IsaacRng$u20$as$u20$rand..SeedableRng$LT$$RF$$u27$a$u20$$u5b$u32$u5d$$GT$$GT$6reseed17h3506d134d029c287E" @ 2371
;   <rand::isaac::IsaacRng as rand::SeedableRng<&'a [u32]>>::from_seed
    "_ZN95_$LT$rand..isaac..IsaacRng$u20$as$u20$rand..SeedableRng$LT$$RF$$u27$a$u20$$u5b$u32$u5d$$GT$$GT$9from_seed17h27b2299c0f445cf3E" @ 2372
;   <std::ffi::os_str::OsStr as core::convert::AsRef<std::ffi::os_str::OsStr>>::as_ref
    "_ZN95_$LT$std..ffi..os_str..OsStr$u20$as$u20$core..convert..AsRef$LT$std..ffi..os_str..OsStr$GT$$GT$6as_ref17h2324ac130bbfcc68E" @ 2373
;   <std::path::Components<'a> as core::iter::traits::DoubleEndedIterator>::next_back
    "_ZN95_$LT$std..path..Components$LT$$u27$a$GT$$u20$as$u20$core..iter..traits..DoubleEndedIterator$GT$9next_back17h78c9e6dfa3838c42E" @ 2374
;   <core::fmt::builders::PadAdapter<'a, 'b> as core::fmt::Write>::write_str
    "_ZN96_$LT$core..fmt..builders..PadAdapter$LT$$u27$a$C$$u20$$u27$b$GT$$u20$as$u20$core..fmt..Write$GT$9write_str17h5a6ffa6097878ce4E" @ 2375
;   <core::str::pattern::StrSearcher<'a, 'b> as core::fmt::Debug>::fmt
    "_ZN96_$LT$core..str..pattern..StrSearcher$LT$$u27$a$C$$u20$$u27$b$GT$$u20$as$u20$core..fmt..Debug$GT$3fmt17hffa8b794fe2bebe8E" @ 2376
;   <std::time::Instant as core::ops::AddAssign<std::time::duration::Duration>>::add_assign
    "_ZN96_$LT$std..time..Instant$u20$as$u20$core..ops..AddAssign$LT$std..time..duration..Duration$GT$$GT$10add_assign17h9abd5d88a22647dbE" @ 2377
;   <std::time::Instant as core::ops::SubAssign<std::time::duration::Duration>>::sub_assign
    "_ZN96_$LT$std..time..Instant$u20$as$u20$core..ops..SubAssign$LT$std..time..duration..Duration$GT$$GT$10sub_assign17h3df5d30a425458eaE" @ 2378
;   <collections::vec::Vec<T> as collections::vec::SpecExtend<T, I>>::spec_extend::_FILE_LINE
    "_ZN97_$LT$collections..vec..Vec$LT$T$GT$$u20$as$u20$collections..vec..SpecExtend$LT$T$C$$u20$I$GT$$GT$11spec_extend10_FILE_LINE17h3c54d33f6babcc44E" @ 2379 DATA
;   <collections::vec::Vec<T> as collections::vec::SpecExtend<T, I>>::spec_extend::__STATIC_FMTSTR
    "_ZN97_$LT$collections..vec..Vec$LT$T$GT$$u20$as$u20$collections..vec..SpecExtend$LT$T$C$$u20$I$GT$$GT$11spec_extend15__STATIC_FMTSTR17h93ddf1df63d9d338E" @ 2380 DATA
;   <collections::vec::Vec<T> as collections::vec::SpecExtend<T, I>>::spec_extend::__STATIC_FMTSTR
    "_ZN97_$LT$collections..vec..Vec$LT$T$GT$$u20$as$u20$collections..vec..SpecExtend$LT$T$C$$u20$I$GT$$GT$11spec_extend15__STATIC_FMTSTR17he2f4363111d0bcfbE" @ 2381 DATA
;   <collections::vec::Vec<u8> as core::convert::From<&'a str>>::from
    "_ZN97_$LT$collections..vec..Vec$LT$u8$GT$$u20$as$u20$core..convert..From$LT$$RF$$u27$a$u20$str$GT$$GT$4from17h24b4a474ba0bf15fE" @ 2382
;   <rand::chacha::ChaChaRng as rand::SeedableRng<&'a [u32]>>::reseed
    "_ZN97_$LT$rand..chacha..ChaChaRng$u20$as$u20$rand..SeedableRng$LT$$RF$$u27$a$u20$$u5b$u32$u5d$$GT$$GT$6reseed17ha24f91307e3751a5E" @ 2383
;   <rand::chacha::ChaChaRng as rand::SeedableRng<&'a [u32]>>::from_seed
    "_ZN97_$LT$rand..chacha..ChaChaRng$u20$as$u20$rand..SeedableRng$LT$$RF$$u27$a$u20$$u5b$u32$u5d$$GT$$GT$9from_seed17h0a7ef4771832052eE" @ 2384
;   <rand::isaac::Isaac64Rng as rand::SeedableRng<&'a [u64]>>::reseed
    "_ZN97_$LT$rand..isaac..Isaac64Rng$u20$as$u20$rand..SeedableRng$LT$$RF$$u27$a$u20$$u5b$u64$u5d$$GT$$GT$6reseed17h456e0ce81aa64a74E" @ 2385
;   <rand::isaac::Isaac64Rng as rand::SeedableRng<&'a [u64]>>::from_seed
    "_ZN97_$LT$rand..isaac..Isaac64Rng$u20$as$u20$rand..SeedableRng$LT$$RF$$u27$a$u20$$u5b$u64$u5d$$GT$$GT$9from_seed17h8fd4cdd8bbb2d41cE" @ 2386
;   <std::fs::DirEntry as std::sys_common::AsInner<std::sys::imp::fs::DirEntry>>::as_inner
    "_ZN97_$LT$std..fs..DirEntry$u20$as$u20$std..sys_common..AsInner$LT$std..sys..imp..fs..DirEntry$GT$$GT$8as_inner17h1d9be5cba4bb088eE" @ 2387
;   <std::fs::FileType as std::sys_common::AsInner<std::sys::imp::fs::FileType>>::as_inner
    "_ZN97_$LT$std..fs..FileType$u20$as$u20$std..sys_common..AsInner$LT$std..sys..imp..fs..FileType$GT$$GT$8as_inner17h28b6bcfc6834a230E" @ 2388
;   <std::fs::Metadata as std::sys_common::AsInner<std::sys::imp::fs::FileAttr>>::as_inner
    "_ZN97_$LT$std..fs..Metadata$u20$as$u20$std..sys_common..AsInner$LT$std..sys..imp..fs..FileAttr$GT$$GT$8as_inner17h3204e46a0669b3ecE" @ 2389
;   <std::io::cursor::Cursor<collections::vec::Vec<u8>> as std::io::Write>::flush
    "_ZN97_$LT$std..io..cursor..Cursor$LT$collections..vec..Vec$LT$u8$GT$$GT$$u20$as$u20$std..io..Write$GT$5flush17h5e5fa2af25fa5220E" @ 2390
;   <std::io::cursor::Cursor<collections::vec::Vec<u8>> as std::io::Write>::write
    "_ZN97_$LT$std..io..cursor..Cursor$LT$collections..vec..Vec$LT$u8$GT$$GT$$u20$as$u20$std..io..Write$GT$5write17haf0112a82c1dc22dE" @ 2391
;   <std::ffi::os_str::OsString as core::borrow::Borrow<std::ffi::os_str::OsStr>>::borrow
    "_ZN98_$LT$std..ffi..os_str..OsString$u20$as$u20$core..borrow..Borrow$LT$std..ffi..os_str..OsStr$GT$$GT$6borrow17h6b71a03c831ac904E" @ 2392
;   <std::ffi::os_str::OsString as core::convert::AsRef<std::ffi::os_str::OsStr>>::as_ref
    "_ZN98_$LT$std..ffi..os_str..OsString$u20$as$u20$core..convert..AsRef$LT$std..ffi..os_str..OsStr$GT$$GT$6as_ref17hdac55d259179cea0E" @ 2393
;   <std::path::Components<'a> as core::convert::AsRef<std::path::Path>>::as_ref
    "_ZN99_$LT$std..path..Components$LT$$u27$a$GT$$u20$as$u20$core..convert..AsRef$LT$std..path..Path$GT$$GT$6as_ref17he21a66571d787c39E" @ 2394
;   <std::rand::ThreadRngReseeder as rand::reseeding::Reseeder<std::rand::StdRng>>::reseed
    "_ZN99_$LT$std..rand..ThreadRngReseeder$u20$as$u20$rand..reseeding..Reseeder$LT$std..rand..StdRng$GT$$GT$6reseed17h6d72e59cdece846fE" @ 2395
;   <std::time::SystemTime as core::ops::AddAssign<std::time::duration::Duration>>::add_assign
    "_ZN99_$LT$std..time..SystemTime$u20$as$u20$core..ops..AddAssign$LT$std..time..duration..Duration$GT$$GT$10add_assign17h24137a815ab70042E" @ 2396
;   <std::time::SystemTime as core::ops::SubAssign<std::time::duration::Duration>>::sub_assign
    "_ZN99_$LT$std..time..SystemTime$u20$as$u20$core..ops..SubAssign$LT$std..time..duration..Duration$GT$$GT$10sub_assign17h527b71cc36fbc8d3E" @ 2397
    __CTOR_LIST__ @ 2398 DATA
    __DTOR_LIST__ @ 2399 DATA
    __EH_FRAME_BEGIN__ @ 2400 DATA
    __EH_FRAME_END__ @ 2401 DATA
    __ImageBase @ 2402 DATA
    __RUNTIME_PSEUDO_RELOC_LIST_END__ @ 2403 DATA
    __RUNTIME_PSEUDO_RELOC_LIST__ @ 2404 DATA
    ___w64_mingwthr_add_key_dtor @ 2405
    ___w64_mingwthr_remove_key_dtor @ 2406
    __ashlti3 @ 2407
    __ashrti3 @ 2408
    __chkstk @ 2409
    __chkstk_ms @ 2410 DATA
    __crt_xc_end__ @ 2411 DATA
    __crt_xc_start__ @ 2412 DATA
    __crt_xi_end__ @ 2413 DATA
    __crt_xi_start__ @ 2414 DATA
    __crt_xl_start__ @ 2415 DATA
    __crt_xp_end__ @ 2416 DATA
    __crt_xp_start__ @ 2417 DATA
    __crt_xt_end__ @ 2418 DATA
    __crt_xt_start__ @ 2419 DATA
    __deregister_frame @ 2420
    __deregister_frame_info @ 2421
    __deregister_frame_info_bases @ 2422
    __divdi3 @ 2423
    __divti3 @ 2424
    __dllonexit @ 2425
    __do_global_ctors @ 2426
    __do_global_dtors @ 2427
    __dyn_tls_init@12 @ 2428
    __dyn_tls_init_callback @ 2429 DATA
    __fixdfti @ 2430
    __fixsfti @ 2431
    __fixunsdfti @ 2432
    __fixunssfti @ 2433
    __floattidf @ 2434
    __floattisf @ 2435
    __floatuntidf @ 2436
    __floatuntisf @ 2437
    __frame_state_for @ 2438
    __lshrti3 @ 2439
    __main @ 2440
    __mingw_GetSectionCount @ 2441
    __mingw_GetSectionForAddress @ 2442
    __mingw_TLScallback @ 2443
    __mingw_enum_import_library_names @ 2444
    __modti3 @ 2445
    __ms_vsnprintf @ 2446
    __mulodi4 @ 2447
    __muloti4 @ 2448
    __multi3 @ 2449
    __native_dllmain_reason @ 2450 DATA
    __native_startup_lock @ 2451 DATA
    __native_startup_state @ 2452 DATA
    __native_vcclrit_reason @ 2453 DATA
    __onexitbegin @ 2454 DATA
    __onexitend @ 2455 DATA
    __pth_gpointer_locked @ 2456
    __pthread_clock_nanosleep @ 2457
    __pthread_shallcancel @ 2458
    __register_frame @ 2459
    __register_frame_info @ 2460
    __register_frame_info_bases @ 2461
    __register_frame_info_table @ 2462
    __register_frame_info_table_bases @ 2463
    __register_frame_table @ 2464
    __report_gsfailure @ 2465
    __rust_allocate @ 2466
    __rust_allocate_zeroed @ 2467
    __rust_deallocate @ 2468
    __rust_maybe_catch_panic @ 2469
    __rust_reallocate @ 2470
    __rust_reallocate_inplace @ 2471
    __rust_start_panic @ 2472
    __rust_usable_size @ 2473
    __security_cookie @ 2474 DATA
    __security_cookie_complement @ 2475 DATA
    __security_init_cookie @ 2476
    __tlregdtor @ 2477
    __tls_end__ @ 2478 DATA
    __tls_start__ @ 2479 DATA
    __udivdi3 @ 2480
    __udivmodti4 @ 2481
    __udivti3 @ 2482
    __umoddi3 @ 2483
    __umodti3 @ 2484
    __xc_a @ 2485 DATA
    __xc_z @ 2486 DATA
    __xi_a @ 2487 DATA
    __xi_z @ 2488 DATA
    __xl_a @ 2489 DATA
    __xl_c @ 2490 DATA
    __xl_d @ 2491 DATA
    __xl_f @ 2492 DATA
    __xl_z @ 2493 DATA
    _alloca @ 2494
    _amsg_exit @ 2495
    _bss_end__ @ 2496 DATA
    _bss_start__ @ 2497 DATA
    _data_end__ @ 2498 DATA
    _data_start__ @ 2499 DATA
    _decode_pointer @ 2500
    _dll__ @ 2501 DATA
    _dll_characteristics__ @ 2502 DATA
    _encode_pointer @ 2503
    _file_alignment__ @ 2504 DATA
    _fpreset @ 2505
    _head_lib32_libadvapi32_a @ 2506 DATA
    _head_lib32_libkernel32_a @ 2507 DATA
    _head_lib32_libmsvcrt_a @ 2508 DATA
    _head_lib32_libshell32_a @ 2509 DATA
    _head_lib32_libuserenv_a @ 2510 DATA
    _head_lib32_libws2_32_a @ 2511 DATA
    _hypot @ 2512
    _image_base__ @ 2513 DATA
    _imp__AddVectoredExceptionHandler@8 @ 2514 DATA
    _imp__CancelIo@4 @ 2515 DATA
    _imp__CloseHandle@4 @ 2516 DATA
    _imp__CommandLineToArgvW@8 @ 2517 DATA
    _imp__CopyFileExW@24 @ 2518 DATA
    _imp__CreateDirectoryW@8 @ 2519 DATA
    _imp__CreateEventA@16 @ 2520 DATA
    _imp__CreateEventW@16 @ 2521 DATA
    _imp__CreateFileW@28 @ 2522 DATA
    _imp__CreateHardLinkW@12 @ 2523 DATA
    _imp__CreateNamedPipeW@32 @ 2524 DATA
    _imp__CreateProcessW@40 @ 2525 DATA
    _imp__CreateSemaphoreA@16 @ 2526 DATA
    _imp__CreateThread@24 @ 2527 DATA
    _imp__CryptAcquireContextA@20 @ 2528 DATA
    _imp__CryptGenRandom@12 @ 2529 DATA
    _imp__CryptReleaseContext@8 @ 2530 DATA
    _imp__DeleteCriticalSection@4 @ 2531 DATA
    _imp__DeleteFileW@4 @ 2532 DATA
    _imp__DeviceIoControl@32 @ 2533 DATA
    _imp__DuplicateHandle@28 @ 2534 DATA
    _imp__EnterCriticalSection@4 @ 2535 DATA
    _imp__ExitProcess@4 @ 2536 DATA
    _imp__FindClose@4 @ 2537 DATA
    _imp__FindFirstFileW@8 @ 2538 DATA
    _imp__FindNextFileW@8 @ 2539 DATA
    _imp__FlushFileBuffers@4 @ 2540 DATA
    _imp__FormatMessageW@28 @ 2541 DATA
    _imp__FreeEnvironmentStringsW@4 @ 2542 DATA
    _imp__FreeLibrary@4 @ 2543 DATA
    _imp__GetCommandLineW@0 @ 2544 DATA
    _imp__GetConsoleMode@8 @ 2545 DATA
    _imp__GetCurrentDirectoryW@8 @ 2546 DATA
    _imp__GetCurrentProcess@0 @ 2547 DATA
    _imp__GetCurrentProcessId@0 @ 2548 DATA
    _imp__GetCurrentThread@0 @ 2549 DATA
    _imp__GetCurrentThreadId@0 @ 2550 DATA
    _imp__GetEnvironmentStringsW@0 @ 2551 DATA
    _imp__GetEnvironmentVariableW@12 @ 2552 DATA
    _imp__GetExitCodeProcess@8 @ 2553 DATA
    _imp__GetFileInformationByHandle@8 @ 2554 DATA
    _imp__GetHandleInformation@8 @ 2555 DATA
    _imp__GetLastError@0 @ 2556 DATA
    _imp__GetModuleFileNameW@12 @ 2557 DATA
    _imp__GetModuleHandleW@4 @ 2558 DATA
    _imp__GetOverlappedResult@16 @ 2559 DATA
    _imp__GetProcAddress@8 @ 2560 DATA
    _imp__GetProcessAffinityMask@12 @ 2561 DATA
    _imp__GetProcessHeap@0 @ 2562 DATA
    _imp__GetProcessId@4 @ 2563 DATA
    _imp__GetStdHandle@4 @ 2564 DATA
    _imp__GetSystemTimeAsFileTime@4 @ 2565 DATA
    _imp__GetTempPathW@8 @ 2566 DATA
    _imp__GetThreadContext@8 @ 2567 DATA
    _imp__GetThreadPriority@4 @ 2568 DATA
    _imp__GetTickCount@0 @ 2569 DATA
    _imp__GetUserProfileDirectoryW@12 @ 2570 DATA
    _imp__HeapAlloc@12 @ 2571 DATA
    _imp__HeapFree@12 @ 2572 DATA
    _imp__HeapReAlloc@16 @ 2573 DATA
    _imp__InitializeCriticalSection@4 @ 2574 DATA
    _imp__IsDebuggerPresent@0 @ 2575 DATA
    _imp__LeaveCriticalSection@4 @ 2576 DATA
    _imp__LoadLibraryW@4 @ 2577 DATA
    _imp__LocalFree@4 @ 2578 DATA
    _imp__MoveFileExW@12 @ 2579 DATA
    _imp__OpenProcess@12 @ 2580 DATA
    _imp__OpenProcessToken@12 @ 2581 DATA
    _imp__OutputDebugStringA@4 @ 2582 DATA
    _imp__QueryPerformanceCounter@4 @ 2583 DATA
    _imp__QueryPerformanceFrequency@4 @ 2584 DATA
    _imp__RaiseException@16 @ 2585 DATA
    _imp__ReadConsoleW@20 @ 2586 DATA
    _imp__ReadFile@20 @ 2587 DATA
    _imp__ReleaseSemaphore@12 @ 2588 DATA
    _imp__RemoveDirectoryW@4 @ 2589 DATA
    _imp__RemoveVectoredExceptionHandler@4 @ 2590 DATA
    _imp__ResetEvent@4 @ 2591 DATA
    _imp__ResumeThread@4 @ 2592 DATA
    _imp__RtlCaptureContext@4 @ 2593 DATA
    _imp__SetCurrentDirectoryW@4 @ 2594 DATA
    _imp__SetEnvironmentVariableW@8 @ 2595 DATA
    _imp__SetEvent@4 @ 2596 DATA
    _imp__SetFileAttributesW@8 @ 2597 DATA
    _imp__SetFilePointerEx@20 @ 2598 DATA
    _imp__SetHandleInformation@12 @ 2599 DATA
    _imp__SetLastError@4 @ 2600 DATA
    _imp__SetProcessAffinityMask@8 @ 2601 DATA
    _imp__SetThreadContext@8 @ 2602 DATA
    _imp__SetThreadPriority@8 @ 2603 DATA
    _imp__SetUnhandledExceptionFilter@4 @ 2604 DATA
    _imp__Sleep@4 @ 2605 DATA
    _imp__SuspendThread@4 @ 2606 DATA
    _imp__SwitchToThread@0 @ 2607 DATA
    _imp__TerminateProcess@8 @ 2608 DATA
    _imp__TlsAlloc@0 @ 2609 DATA
    _imp__TlsGetValue@4 @ 2610 DATA
    _imp__TlsSetValue@8 @ 2611 DATA
    _imp__TryEnterCriticalSection@4 @ 2612 DATA
    _imp__UnhandledExceptionFilter@4 @ 2613 DATA
    _imp__VirtualProtect@16 @ 2614 DATA
    _imp__VirtualQuery@12 @ 2615 DATA
    _imp__WSACleanup@0 @ 2616 DATA
    _imp__WSADuplicateSocketW@12 @ 2617 DATA
    _imp__WSAGetLastError@0 @ 2618 DATA
    _imp__WSASocketW@24 @ 2619 DATA
    _imp__WSAStartup@8 @ 2620 DATA
    _imp__WaitForMultipleObjects@16 @ 2621 DATA
    _imp__WaitForSingleObject@8 @ 2622 DATA
    _imp__WideCharToMultiByte@32 @ 2623 DATA
    _imp__WriteConsoleW@20 @ 2624 DATA
    _imp__WriteFile@20 @ 2625 DATA
    _imp____dllonexit @ 2626 DATA
    _imp___amsg_exit @ 2627 DATA
    _imp___beginthreadex @ 2628 DATA
    _imp___endthreadex @ 2629 DATA
    _imp___errno @ 2630 DATA
    _imp___hypot @ 2631 DATA
    _imp___initterm @ 2632 DATA
    _imp___iob @ 2633 DATA
    _imp___lock @ 2634 DATA
    _imp___onexit @ 2635 DATA
    _imp___setjmp3 @ 2636 DATA
    _imp___ultoa @ 2637 DATA
    _imp___unlock @ 2638 DATA
    _imp___vsnprintf @ 2639 DATA
    _imp__abort @ 2640 DATA
    _imp__accept@12 @ 2641 DATA
    _imp__atoi @ 2642 DATA
    _imp__bind@12 @ 2643 DATA
    _imp__bsearch @ 2644 DATA
    _imp__calloc @ 2645 DATA
    _imp__close @ 2646 DATA
    _imp__closesocket@4 @ 2647 DATA
    _imp__connect@12 @ 2648 DATA
    _imp__exit @ 2649 DATA
    _imp__fprintf @ 2650 DATA
    _imp__free @ 2651 DATA
    _imp__freeaddrinfo@4 @ 2652 DATA
    _imp__fwrite @ 2653 DATA
    _imp__getaddrinfo@16 @ 2654 DATA
    _imp__getpeername@12 @ 2655 DATA
    _imp__getsockname@12 @ 2656 DATA
    _imp__getsockopt@20 @ 2657 DATA
    _imp__ioctlsocket@12 @ 2658 DATA
    _imp__listen@8 @ 2659 DATA
    _imp__longjmp @ 2660 DATA
    _imp__lseek @ 2661 DATA
    _imp__malloc @ 2662 DATA
    _imp__memcmp @ 2663 DATA
    _imp__memcpy @ 2664 DATA
    _imp__memmove @ 2665 DATA
    _imp__memset @ 2666 DATA
    _imp__open @ 2667 DATA
    _imp__printf @ 2668 DATA
    _imp__read @ 2669 DATA
    _imp__realloc @ 2670 DATA
    _imp__recv@16 @ 2671 DATA
    _imp__recvfrom@24 @ 2672 DATA
    _imp__send@16 @ 2673 DATA
    _imp__sendto@24 @ 2674 DATA
    _imp__setsockopt@20 @ 2675 DATA
    _imp__shutdown@8 @ 2676 DATA
    _imp__strcmp @ 2677 DATA
    _imp__strdup @ 2678 DATA
    _imp__strlen @ 2679 DATA
    _imp__strncmp @ 2680 DATA
    _imp__vfprintf @ 2681 DATA
    _initterm @ 2682
    _lib32_libadvapi32_a_iname @ 2683 DATA
    _lib32_libkernel32_a_iname @ 2684 DATA
    _lib32_libmsvcrt_a_iname @ 2685 DATA
    _lib32_libshell32_a_iname @ 2686 DATA
    _lib32_libuserenv_a_iname @ 2687 DATA
    _lib32_libws2_32_a_iname @ 2688 DATA
    _loader_flags__ @ 2689 DATA
    _lock @ 2690
    _major_image_version__ @ 2691 DATA
    _major_os_version__ @ 2692 DATA
    _major_subsystem_version__ @ 2693 DATA
    _minor_image_version__ @ 2694 DATA
    _minor_os_version__ @ 2695 DATA
    _minor_subsystem_version__ @ 2696 DATA
    _pei386_runtime_relocator @ 2697
    _pthread_cleanup_dest @ 2698
    _pthread_get_state @ 2699
    _pthread_invoke_cancel @ 2700
    _pthread_key_dest @ 2701 DATA
    _pthread_rel_time_in_ms @ 2702
    _pthread_set_state @ 2703
    _pthread_setnobreak @ 2704
    _pthread_time_in_ms @ 2705
    _pthread_time_in_ms_from_timespec @ 2706
    _pthread_tryjoin @ 2707
    _rt_psrelocs_end @ 2708 DATA
    _rt_psrelocs_size @ 2709 DATA
    _rt_psrelocs_start @ 2710 DATA
    _section_alignment__ @ 2711 DATA
    _setjmp3 @ 2712
    _size_of_heap_commit__ @ 2713 DATA
    _size_of_heap_reserve__ @ 2714 DATA
    _size_of_stack_commit__ @ 2715 DATA
    _size_of_stack_reserve__ @ 2716 DATA
    _subsystem__ @ 2717 DATA
    _tls_end @ 2718 DATA
    _tls_index @ 2719 DATA
    _tls_start @ 2720 DATA
    _tls_used @ 2721 DATA
    _unlock @ 2722
    _vsnprintf @ 2723
    abort @ 2724
    accept@12 @ 2725 DATA
    atexit @ 2726
    atoi @ 2727
    backtrace_alloc @ 2728
    backtrace_close @ 2729
    backtrace_create_state @ 2730
    backtrace_dwarf_add @ 2731
    backtrace_free @ 2732
    backtrace_get_view @ 2733
    backtrace_initialize @ 2734
    backtrace_open @ 2735
    backtrace_pcinfo @ 2736
    backtrace_qsort @ 2737
    backtrace_release_view @ 2738
    backtrace_syminfo @ 2739
    backtrace_vector_finish @ 2740
    backtrace_vector_grow @ 2741
    backtrace_vector_release @ 2742
    bind@12 @ 2743 DATA
    bsearch @ 2744
    calloc @ 2745
    close @ 2746
    closesocket@4 @ 2747 DATA
    cond_print @ 2748
    cond_print_set @ 2749
    connect@12 @ 2750 DATA
    do_sema_b_wait_intern @ 2751
    drop_float_array @ 2752
    exit @ 2753
    fpreset @ 2754
    fprintf @ 2755
    free @ 2756
    freeaddrinfo@4 @ 2757 DATA
    fwrite @ 2758
    getaddrinfo@16 @ 2759 DATA
    getpeername@12 @ 2760 DATA
    getsockname@12 @ 2761 DATA
    getsockopt@20 @ 2762 DATA
    hypot @ 2763
    ioctlsocket@12 @ 2764 DATA
    listen@8 @ 2765 DATA
    longjmp @ 2766
    lseek @ 2767
    malloc @ 2768
    memcmp @ 2769 DATA
    memcpy @ 2770 DATA
    memmove @ 2771 DATA
    memset @ 2772 DATA
    mingw_app_type @ 2773 DATA
    mingw_getsp @ 2774
    mingw_initltsdrot_force @ 2775 DATA
    mingw_initltsdyn_force @ 2776 DATA
    mingw_initltssuo_force @ 2777 DATA
    mingw_onexit @ 2778
    open @ 2779
    pcinit @ 2780 DATA
    printf @ 2781
    pthread_attr_destroy @ 2782
    pthread_attr_getdetachstate @ 2783
    pthread_attr_getinheritsched @ 2784
    pthread_attr_getscope @ 2785
    pthread_attr_getstackaddr @ 2786
    pthread_attr_getstacksize @ 2787
    pthread_attr_init @ 2788
    pthread_attr_setdetachstate @ 2789
    pthread_attr_setinheritsched @ 2790
    pthread_attr_setscope @ 2791
    pthread_attr_setstackaddr @ 2792
    pthread_attr_setstacksize @ 2793
    pthread_cancel @ 2794
    pthread_cond_broadcast @ 2795
    pthread_cond_destroy @ 2796
    pthread_cond_init @ 2797
    pthread_cond_signal @ 2798
    pthread_cond_timedwait @ 2799
    pthread_cond_timedwait_relative_np @ 2800
    pthread_cond_wait @ 2801
    pthread_condattr_destroy @ 2802
    pthread_condattr_getclock @ 2803
    pthread_condattr_getpshared @ 2804
    pthread_condattr_init @ 2805
    pthread_condattr_setclock @ 2806
    pthread_condattr_setpshared @ 2807
    pthread_create @ 2808
    pthread_create_wrapper @ 2809
    pthread_delay_np @ 2810
    pthread_delay_np_ms @ 2811
    pthread_detach @ 2812
    pthread_equal @ 2813
    pthread_exit @ 2814
    pthread_get_concurrency @ 2815
    pthread_getclean @ 2816
    pthread_getconcurrency @ 2817
    pthread_getevent @ 2818
    pthread_gethandle @ 2819
    pthread_getname_np @ 2820
    pthread_getspecific @ 2821
    pthread_join @ 2822
    pthread_key_create @ 2823
    pthread_key_delete @ 2824
    pthread_kill @ 2825
    pthread_mutex_destroy @ 2826
    pthread_mutex_init @ 2827
    pthread_mutex_lock @ 2828
    pthread_mutex_timedlock @ 2829
    pthread_mutex_trylock @ 2830
    pthread_mutex_unlock @ 2831
    pthread_mutexattr_destroy @ 2832
    pthread_mutexattr_getprioceiling @ 2833
    pthread_mutexattr_getprotocol @ 2834
    pthread_mutexattr_getpshared @ 2835
    pthread_mutexattr_gettype @ 2836
    pthread_mutexattr_init @ 2837
    pthread_mutexattr_setprioceiling @ 2838
    pthread_mutexattr_setprotocol @ 2839
    pthread_mutexattr_setpshared @ 2840
    pthread_mutexattr_settype @ 2841
    pthread_num_processors_np @ 2842
    pthread_once @ 2843
    pthread_rwlock_destroy @ 2844
    pthread_rwlock_init @ 2845
    pthread_rwlock_rdlock @ 2846
    pthread_rwlock_timedrdlock @ 2847
    pthread_rwlock_timedwrlock @ 2848
    pthread_rwlock_tryrdlock @ 2849
    pthread_rwlock_trywrlock @ 2850
    pthread_rwlock_unlock @ 2851
    pthread_rwlock_wrlock @ 2852
    pthread_rwlockattr_destroy @ 2853
    pthread_rwlockattr_getpshared @ 2854
    pthread_rwlockattr_init @ 2855
    pthread_rwlockattr_setpshared @ 2856
    pthread_self @ 2857
    pthread_set_concurrency @ 2858
    pthread_set_num_processors_np @ 2859
    pthread_setcancelstate @ 2860
    pthread_setcanceltype @ 2861
    pthread_setconcurrency @ 2862
    pthread_setname_np @ 2863
    pthread_setspecific @ 2864
    pthread_spin_destroy @ 2865
    pthread_spin_init @ 2866
    pthread_spin_lock @ 2867
    pthread_spin_trylock @ 2868
    pthread_spin_unlock @ 2869
    pthread_testcancel @ 2870
    pthread_timechange_handler_np @ 2871
    pthread_tls_init @ 2872
    read @ 2873
    realloc @ 2874
    recv@16 @ 2875 DATA
    recvfrom@24 @ 2876 DATA
    rust_begin_unwind @ 2877
    rust_eh_personality @ 2878
    rust_eh_register_frames @ 2879
    rust_eh_unregister_frames @ 2880
    rust_eh_unwind_resume @ 2881
    rwl_print @ 2882
    rwl_print_set @ 2883
    send@16 @ 2884 DATA
    sendto@24 @ 2885 DATA
    setsockopt@20 @ 2886 DATA
    shutdown@8 @ 2887 DATA
    simplify_rdp_ffi @ 2888
    simplify_visvalingam_ffi @ 2889
    strcmp @ 2890
    strdup @ 2891
    strlen @ 2892 DATA
    strncmp @ 2893
    strnlen @ 2894
    thread_print @ 2895
    thread_print_set @ 2896
    vfprintf @ 2897
